	.file	"semantic.cpp"
	.text
	.section	.text._ZNKSt5ctypeIcE8do_widenEc,"axG",@progbits,_ZNKSt5ctypeIcE8do_widenEc,comdat
	.align 2
	.p2align 4,,15
	.weak	_ZNKSt5ctypeIcE8do_widenEc
	.type	_ZNKSt5ctypeIcE8do_widenEc, @function
_ZNKSt5ctypeIcE8do_widenEc:
.LFB2532:
	.cfi_startproc
	movl	%esi, %eax
	ret
	.cfi_endproc
.LFE2532:
	.size	_ZNKSt5ctypeIcE8do_widenEc, .-_ZNKSt5ctypeIcE8do_widenEc
	.section	.rodata.str1.1,"aMS",@progbits,1
.LC0:
	.string	"src/front/semantic.cpp"
.LC1:
	.string	"term"
	.section	.text.unlikely,"ax",@progbits
	.align 2
	.type	_ZN8frontend8Analyzer13analysisBTypeEPNS_5BTypeE.part.162, @function
_ZN8frontend8Analyzer13analysisBTypeEPNS_5BTypeE.part.162:
.LFB5683:
	.cfi_startproc
	leaq	_ZZN8frontend8Analyzer13analysisBTypeEPNS_5BTypeEE19__PRETTY_FUNCTION__(%rip), %rcx
	leaq	.LC0(%rip), %rsi
	leaq	.LC1(%rip), %rdi
	subq	$8, %rsp
	.cfi_def_cfa_offset 16
	movl	$355, %edx
	call	__assert_fail@PLT
	.cfi_endproc
.LFE5683:
	.size	_ZN8frontend8Analyzer13analysisBTypeEPNS_5BTypeE.part.162, .-_ZN8frontend8Analyzer13analysisBTypeEPNS_5BTypeE.part.162
	.section	.rodata.str1.1
.LC2:
	.string	"addExpNode"
	.section	.text.unlikely
	.align 2
	.type	_ZN8frontend8Analyzer11analysisExpEPNS_3ExpERSt6vectorIPN2ir11InstructionESaIS6_EE.part.303, @function
_ZN8frontend8Analyzer11analysisExpEPNS_3ExpERSt6vectorIPN2ir11InstructionESaIS6_EE.part.303:
.LFB5824:
	.cfi_startproc
	leaq	_ZZN8frontend8Analyzer11analysisExpEPNS_3ExpERSt6vectorIPN2ir11InstructionESaIS6_EEE19__PRETTY_FUNCTION__(%rip), %rcx
	leaq	.LC0(%rip), %rsi
	leaq	.LC2(%rip), %rdi
	subq	$8, %rsp
	.cfi_def_cfa_offset 16
	movl	$741, %edx
	call	__assert_fail@PLT
	.cfi_endproc
.LFE5824:
	.size	_ZN8frontend8Analyzer11analysisExpEPNS_3ExpERSt6vectorIPN2ir11InstructionESaIS6_EE.part.303, .-_ZN8frontend8Analyzer11analysisExpEPNS_3ExpERSt6vectorIPN2ir11InstructionESaIS6_EE.part.303
	.section	.rodata.str1.1
.LC3:
	.string	"constDecl"
	.section	.text.unlikely
	.align 2
	.type	_ZN8frontend8Analyzer12analysisDeclEPNS_4DeclERSt6vectorIPN2ir11InstructionESaIS6_EE.part.304, @function
_ZN8frontend8Analyzer12analysisDeclEPNS_4DeclERSt6vectorIPN2ir11InstructionESaIS6_EE.part.304:
.LFB5825:
	.cfi_startproc
	leaq	_ZZN8frontend8Analyzer12analysisDeclEPNS_4DeclERSt6vectorIPN2ir11InstructionESaIS6_EEE19__PRETTY_FUNCTION__(%rip), %rcx
	leaq	.LC0(%rip), %rsi
	leaq	.LC3(%rip), %rdi
	subq	$8, %rsp
	.cfi_def_cfa_offset 16
	movl	$282, %edx
	call	__assert_fail@PLT
	.cfi_endproc
.LFE5825:
	.size	_ZN8frontend8Analyzer12analysisDeclEPNS_4DeclERSt6vectorIPN2ir11InstructionESaIS6_EE.part.304, .-_ZN8frontend8Analyzer12analysisDeclEPNS_4DeclERSt6vectorIPN2ir11InstructionESaIS6_EE.part.304
	.section	.rodata.str1.8,"aMS",@progbits,1
	.align 8
.LC4:
	.string	"basic_string::_M_construct null not valid"
	.text
	.align 2
	.p2align 4,,15
	.type	_ZNSt7__cxx1112basic_stringIcSt11char_traitsIcESaIcEE12_M_constructIPKcEEvT_S8_St20forward_iterator_tag.isra.146, @function
_ZNSt7__cxx1112basic_stringIcSt11char_traitsIcESaIcEE12_M_constructIPKcEEvT_S8_St20forward_iterator_tag.isra.146:
.LFB5667:
	.cfi_startproc
	pushq	%r12
	.cfi_def_cfa_offset 16
	.cfi_offset 12, -16
	pushq	%rbp
	.cfi_def_cfa_offset 24
	.cfi_offset 6, -24
	movq	%rsi, %r12
	pushq	%rbx
	.cfi_def_cfa_offset 32
	.cfi_offset 3, -32
	movq	%rdi, %rbp
	subq	$16, %rsp
	.cfi_def_cfa_offset 48
	movq	%fs:40, %rax
	movq	%rax, 8(%rsp)
	xorl	%eax, %eax
	testq	%rsi, %rsi
	jne	.L10
	testq	%rdx, %rdx
	jne	.L26
.L10:
	subq	%r12, %rdx
	cmpq	$15, %rdx
	movq	%rdx, %rbx
	movq	%rdx, (%rsp)
	ja	.L27
	cmpq	$1, %rdx
	movq	0(%rbp), %rax
	jne	.L13
	movzbl	(%r12), %edx
	movb	%dl, (%rax)
	movq	(%rsp), %rbx
	movq	0(%rbp), %rax
.L14:
	movq	%rbx, 8(%rbp)
	movb	$0, (%rax,%rbx)
	movq	8(%rsp), %rax
	xorq	%fs:40, %rax
	jne	.L28
	addq	$16, %rsp
	.cfi_remember_state
	.cfi_def_cfa_offset 32
	popq	%rbx
	.cfi_def_cfa_offset 24
	popq	%rbp
	.cfi_def_cfa_offset 16
	popq	%r12
	.cfi_def_cfa_offset 8
	ret
	.p2align 4,,10
	.p2align 3
.L27:
	.cfi_restore_state
	xorl	%edx, %edx
	movq	%rsp, %rsi
	movq	%rbp, %rdi
	call	_ZNSt7__cxx1112basic_stringIcSt11char_traitsIcESaIcEE9_M_createERmm@PLT
	movq	(%rsp), %rdx
	movq	%rax, 0(%rbp)
	movq	%rdx, 16(%rbp)
.L12:
	movq	%rbx, %rdx
	movq	%r12, %rsi
	movq	%rax, %rdi
	call	memcpy@PLT
	movq	(%rsp), %rbx
	movq	0(%rbp), %rax
	jmp	.L14
	.p2align 4,,10
	.p2align 3
.L13:
	testq	%rdx, %rdx
	je	.L14
	jmp	.L12
.L26:
	leaq	.LC4(%rip), %rdi
	call	_ZSt19__throw_logic_errorPKc@PLT
.L28:
	call	__stack_chk_fail@PLT
	.cfi_endproc
.LFE5667:
	.size	_ZNSt7__cxx1112basic_stringIcSt11char_traitsIcESaIcEE12_M_constructIPKcEEvT_S8_St20forward_iterator_tag.isra.146, .-_ZNSt7__cxx1112basic_stringIcSt11char_traitsIcESaIcEE12_M_constructIPKcEEvT_S8_St20forward_iterator_tag.isra.146
	.set	_ZNSt7__cxx1112basic_stringIcSt11char_traitsIcESaIcEE12_M_constructIPcEEvT_S7_St20forward_iterator_tag.isra.160,_ZNSt7__cxx1112basic_stringIcSt11char_traitsIcESaIcEE12_M_constructIPKcEEvT_S8_St20forward_iterator_tag.isra.146
	.align 2
	.p2align 4,,15
	.type	_ZNSt7__cxx1112basic_stringIcSt11char_traitsIcESaIcEEC2EPKcRKS3_.isra.148, @function
_ZNSt7__cxx1112basic_stringIcSt11char_traitsIcESaIcEEC2EPKcRKS3_.isra.148:
.LFB5669:
	.cfi_startproc
	pushq	%r13
	.cfi_def_cfa_offset 16
	.cfi_offset 13, -16
	pushq	%r12
	.cfi_def_cfa_offset 24
	.cfi_offset 12, -24
	leaq	16(%rdi), %r12
	pushq	%rbp
	.cfi_def_cfa_offset 32
	.cfi_offset 6, -32
	pushq	%rbx
	.cfi_def_cfa_offset 40
	.cfi_offset 3, -40
	movq	%rdi, %rbx
	movq	%rsi, %r13
	subq	$24, %rsp
	.cfi_def_cfa_offset 64
	movq	%r12, (%rdi)
	movq	%rsi, %rdi
	movq	%fs:40, %rax
	movq	%rax, 8(%rsp)
	xorl	%eax, %eax
	call	strlen@PLT
	cmpq	$15, %rax
	movq	%rax, %rbp
	movq	%rax, (%rsp)
	ja	.L39
	cmpq	$1, %rax
	jne	.L32
	movzbl	0(%r13), %edx
	movb	%dl, 16(%rbx)
.L33:
	movq	%rax, 8(%rbx)
	movb	$0, (%r12,%rax)
	movq	8(%rsp), %rax
	xorq	%fs:40, %rax
	jne	.L40
	addq	$24, %rsp
	.cfi_remember_state
	.cfi_def_cfa_offset 40
	popq	%rbx
	.cfi_def_cfa_offset 32
	popq	%rbp
	.cfi_def_cfa_offset 24
	popq	%r12
	.cfi_def_cfa_offset 16
	popq	%r13
	.cfi_def_cfa_offset 8
	ret
	.p2align 4,,10
	.p2align 3
.L39:
	.cfi_restore_state
	movq	%rsp, %rsi
	xorl	%edx, %edx
	movq	%rbx, %rdi
	call	_ZNSt7__cxx1112basic_stringIcSt11char_traitsIcESaIcEE9_M_createERmm@PLT
	movq	%rax, %r12
	movq	%rax, (%rbx)
	movq	(%rsp), %rax
	movq	%rax, 16(%rbx)
.L31:
	movq	%r12, %rdi
	movq	%rbp, %rdx
	movq	%r13, %rsi
	call	memcpy@PLT
	movq	(%rsp), %rax
	movq	(%rbx), %r12
	jmp	.L33
	.p2align 4,,10
	.p2align 3
.L32:
	testq	%rax, %rax
	je	.L33
	jmp	.L31
.L40:
	call	__stack_chk_fail@PLT
	.cfi_endproc
.LFE5669:
	.size	_ZNSt7__cxx1112basic_stringIcSt11char_traitsIcESaIcEEC2EPKcRKS3_.isra.148, .-_ZNSt7__cxx1112basic_stringIcSt11char_traitsIcESaIcEEC2EPKcRKS3_.isra.148
	.p2align 4,,15
	.type	_ZN9__gnu_cxx12__to_xstringINSt7__cxx1112basic_stringIcSt11char_traitsIcESaIcEEEcEET_PFiPT0_mPKS8_P13__va_list_tagEmSB_z.constprop.314, @function
_ZN9__gnu_cxx12__to_xstringINSt7__cxx1112basic_stringIcSt11char_traitsIcESaIcEEEcEET_PFiPT0_mPKS8_P13__va_list_tagEmSB_z.constprop.314:
.LFB5830:
	.cfi_startproc
	pushq	%rbp
	.cfi_def_cfa_offset 16
	.cfi_offset 6, -16
	movq	%rdx, %rsi
	movq	%rsp, %rbp
	.cfi_def_cfa_register 6
	pushq	%r13
	pushq	%r12
	pushq	%rbx
	.cfi_offset 13, -24
	.cfi_offset 12, -32
	.cfi_offset 3, -40
	movq	%rdi, %r12
	subq	$232, %rsp
	testb	%al, %al
	movq	%r8, -176(%rbp)
	movq	%r9, -168(%rbp)
	je	.L42
	movaps	%xmm0, -160(%rbp)
	movaps	%xmm1, -144(%rbp)
	movaps	%xmm2, -128(%rbp)
	movaps	%xmm3, -112(%rbp)
	movaps	%xmm4, -96(%rbp)
	movaps	%xmm5, -80(%rbp)
	movaps	%xmm6, -64(%rbp)
	movaps	%xmm7, -48(%rbp)
.L42:
	movq	%fs:40, %rax
	movq	%rax, -216(%rbp)
	xorl	%eax, %eax
	leaq	30(%rsi), %rax
	leaq	-240(%rbp), %r9
	movq	%rcx, %r8
	movl	$1, %edx
	movq	$-1, %rcx
	andq	$-16, %rax
	movl	$32, -240(%rbp)
	movl	$48, -236(%rbp)
	subq	%rax, %rsp
	leaq	16(%rbp), %rax
	leaq	15(%rsp), %r13
	movq	%rax, -232(%rbp)
	leaq	-208(%rbp), %rax
	andq	$-16, %r13
	movq	%r13, %rdi
	movq	%rax, -224(%rbp)
	call	__vsnprintf_chk@PLT
	movslq	%eax, %rbx
	leaq	16(%r12), %rax
	cmpq	$15, %rbx
	movq	%rbx, -248(%rbp)
	movq	%rax, (%r12)
	ja	.L52
	cmpq	$1, %rbx
	jne	.L45
	movzbl	0(%r13), %edx
	movb	%dl, 16(%r12)
.L46:
	movq	-216(%rbp), %rdi
	xorq	%fs:40, %rdi
	movq	%rbx, 8(%r12)
	movb	$0, (%rax,%rbx)
	movq	%r12, %rax
	jne	.L53
	leaq	-24(%rbp), %rsp
	popq	%rbx
	popq	%r12
	popq	%r13
	popq	%rbp
	.cfi_remember_state
	.cfi_def_cfa 7, 8
	ret
	.p2align 4,,10
	.p2align 3
.L52:
	.cfi_restore_state
	leaq	-248(%rbp), %rsi
	xorl	%edx, %edx
	movq	%r12, %rdi
	call	_ZNSt7__cxx1112basic_stringIcSt11char_traitsIcESaIcEE9_M_createERmm@PLT
	movq	-248(%rbp), %rdx
	movq	%rax, (%r12)
	movq	%rdx, 16(%r12)
.L44:
	movq	%rbx, %rdx
	movq	%r13, %rsi
	movq	%rax, %rdi
	call	memcpy@PLT
	movq	-248(%rbp), %rbx
	movq	(%r12), %rax
	jmp	.L46
	.p2align 4,,10
	.p2align 3
.L45:
	testq	%rbx, %rbx
	je	.L46
	jmp	.L44
.L53:
	call	__stack_chk_fail@PLT
	.cfi_endproc
.LFE5830:
	.size	_ZN9__gnu_cxx12__to_xstringINSt7__cxx1112basic_stringIcSt11char_traitsIcESaIcEEEcEET_PFiPT0_mPKS8_P13__va_list_tagEmSB_z.constprop.314, .-_ZN9__gnu_cxx12__to_xstringINSt7__cxx1112basic_stringIcSt11char_traitsIcESaIcEEEcEET_PFiPT0_mPKS8_P13__va_list_tagEmSB_z.constprop.314
	.section	.text._ZN8frontend3STED2Ev,"axG",@progbits,_ZN8frontend3STED5Ev,comdat
	.align 2
	.p2align 4,,15
	.weak	_ZN8frontend3STED2Ev
	.type	_ZN8frontend3STED2Ev, @function
_ZN8frontend3STED2Ev:
.LFB3586:
	.cfi_startproc
	pushq	%rbx
	.cfi_def_cfa_offset 16
	.cfi_offset 3, -16
	movq	%rdi, %rbx
	movq	40(%rdi), %rdi
	testq	%rdi, %rdi
	je	.L55
	call	_ZdlPv@PLT
.L55:
	movq	(%rbx), %rdi
	addq	$16, %rbx
	cmpq	%rbx, %rdi
	je	.L54
	popq	%rbx
	.cfi_remember_state
	.cfi_def_cfa_offset 8
	jmp	_ZdlPv@PLT
	.p2align 4,,10
	.p2align 3
.L54:
	.cfi_restore_state
	popq	%rbx
	.cfi_def_cfa_offset 8
	ret
	.cfi_endproc
.LFE3586:
	.size	_ZN8frontend3STED2Ev, .-_ZN8frontend3STED2Ev
	.weak	_ZN8frontend3STED1Ev
	.set	_ZN8frontend3STED1Ev,_ZN8frontend3STED2Ev
	.section	.rodata.str1.1
.LC5:
	.string	"%d"
.LC6:
	.string	"_"
	.text
	.align 2
	.p2align 4,,15
	.globl	_ZNK8frontend11SymbolTable15get_scoped_nameENSt7__cxx1112basic_stringIcSt11char_traitsIcESaIcEEE
	.type	_ZNK8frontend11SymbolTable15get_scoped_nameENSt7__cxx1112basic_stringIcSt11char_traitsIcESaIcEEE, @function
_ZNK8frontend11SymbolTable15get_scoped_nameENSt7__cxx1112basic_stringIcSt11char_traitsIcESaIcEEE:
.LFB3594:
	.cfi_startproc
	.cfi_personality 0x9b,DW.ref.__gxx_personality_v0
	.cfi_lsda 0x1b,.LLSDA3594
	pushq	%r15
	.cfi_def_cfa_offset 16
	.cfi_offset 15, -16
	pushq	%r14
	.cfi_def_cfa_offset 24
	.cfi_offset 14, -24
	leaq	.LC5(%rip), %rcx
	pushq	%r13
	.cfi_def_cfa_offset 32
	.cfi_offset 13, -32
	pushq	%r12
	.cfi_def_cfa_offset 40
	.cfi_offset 12, -40
	movq	%rdx, %r14
	pushq	%rbp
	.cfi_def_cfa_offset 48
	.cfi_offset 6, -48
	pushq	%rbx
	.cfi_def_cfa_offset 56
	.cfi_offset 3, -56
	movl	$16, %edx
	movq	%rdi, %rbx
	subq	$104, %rsp
	.cfi_def_cfa_offset 160
	movl	72(%rsi), %r8d
	movq	vsnprintf@GOTPCREL(%rip), %rsi
	leaq	48(%rsp), %rbp
	movq	%fs:40, %rax
	movq	%rax, 88(%rsp)
	xorl	%eax, %eax
	movq	%rbp, %rdi
.LEHB0:
	call	_ZN9__gnu_cxx12__to_xstringINSt7__cxx1112basic_stringIcSt11char_traitsIcESaIcEEEcEET_PFiPT0_mPKS8_P13__va_list_tagEmSB_z.constprop.314
.LEHE0:
	leaq	.LC6(%rip), %rcx
	movl	$1, %r8d
	xorl	%edx, %edx
	xorl	%esi, %esi
	movq	%rbp, %rdi
.LEHB1:
	call	_ZNSt7__cxx1112basic_stringIcSt11char_traitsIcESaIcEE10_M_replaceEmmPKcm@PLT
.LEHE1:
	leaq	16(%rsp), %r12
	leaq	16(%r12), %rdx
	movq	%rdx, 16(%rsp)
	movq	(%rax), %rcx
	leaq	16(%rax), %rdx
	cmpq	%rdx, %rcx
	je	.L91
	movq	%rcx, 16(%rsp)
	movq	16(%rax), %rcx
	movq	%rcx, 32(%rsp)
.L63:
	movq	8(%rax), %rcx
	addq	$16, %rbp
	movb	$0, 16(%rax)
	movq	%rcx, 24(%rsp)
	movq	%rdx, (%rax)
	movq	48(%rsp), %rdi
	movq	$0, 8(%rax)
	cmpq	%rbp, %rdi
	je	.L64
	call	_ZdlPv@PLT
.L64:
	movq	(%r14), %r13
	movq	8(%r14), %rbp
	leaq	16(%rbx), %r15
	movq	%r15, (%rbx)
	movq	%r13, %rax
	addq	%rbp, %rax
	je	.L65
	testq	%r13, %r13
	je	.L92
.L65:
	cmpq	$15, %rbp
	movq	%rbp, 8(%rsp)
	ja	.L93
	cmpq	$1, %rbp
	jne	.L68
	movzbl	0(%r13), %eax
	movb	%al, 16(%rbx)
	movq	%r15, %rax
.L69:
	movq	%rbp, 8(%rbx)
	movb	$0, (%rax,%rbp)
	movq	%rbx, %rdi
	movq	24(%rsp), %rdx
	movq	16(%rsp), %rsi
.LEHB2:
	call	_ZNSt7__cxx1112basic_stringIcSt11char_traitsIcESaIcEE9_M_appendEPKcm@PLT
.LEHE2:
	movq	16(%rsp), %rdi
	addq	$16, %r12
	cmpq	%r12, %rdi
	je	.L61
	call	_ZdlPv@PLT
.L61:
	movq	88(%rsp), %rsi
	xorq	%fs:40, %rsi
	movq	%rbx, %rax
	jne	.L94
	addq	$104, %rsp
	.cfi_remember_state
	.cfi_def_cfa_offset 56
	popq	%rbx
	.cfi_def_cfa_offset 48
	popq	%rbp
	.cfi_def_cfa_offset 40
	popq	%r12
	.cfi_def_cfa_offset 32
	popq	%r13
	.cfi_def_cfa_offset 24
	popq	%r14
	.cfi_def_cfa_offset 16
	popq	%r15
	.cfi_def_cfa_offset 8
	ret
	.p2align 4,,10
	.p2align 3
.L93:
	.cfi_restore_state
	leaq	8(%rsp), %rsi
	xorl	%edx, %edx
	movq	%rbx, %rdi
.LEHB3:
	call	_ZNSt7__cxx1112basic_stringIcSt11char_traitsIcESaIcEE9_M_createERmm@PLT
	movq	8(%rsp), %rdx
	movq	%rax, (%rbx)
	movq	%rdx, 16(%rbx)
.L67:
	movq	%rbp, %rdx
	movq	%r13, %rsi
	movq	%rax, %rdi
	call	memcpy@PLT
	movq	8(%rsp), %rbp
	movq	(%rbx), %rax
	jmp	.L69
	.p2align 4,,10
	.p2align 3
.L91:
	movdqu	16(%rax), %xmm0
	movaps	%xmm0, 32(%rsp)
	jmp	.L63
	.p2align 4,,10
	.p2align 3
.L68:
	testq	%rbp, %rbp
	movq	%r15, %rax
	je	.L69
	jmp	.L67
.L92:
	leaq	.LC4(%rip), %rdi
	call	_ZSt19__throw_logic_errorPKc@PLT
.LEHE3:
.L81:
	movq	%rax, %rbp
.L73:
	movq	16(%rsp), %rdi
	addq	$16, %r12
	cmpq	%r12, %rdi
	je	.L77
	call	_ZdlPv@PLT
.L77:
	movq	%rbp, %rdi
.LEHB4:
	call	_Unwind_Resume@PLT
.L94:
	call	__stack_chk_fail@PLT
.L80:
	movq	48(%rsp), %rdi
	addq	$16, %rbp
	movq	%rax, %rbx
	cmpq	%rbp, %rdi
	je	.L76
	call	_ZdlPv@PLT
.L76:
	movq	%rbx, %rdi
	call	_Unwind_Resume@PLT
.LEHE4:
.L82:
	movq	(%rbx), %rdi
	movq	%rax, %rbp
	cmpq	%rdi, %r15
	je	.L73
	call	_ZdlPv@PLT
	jmp	.L73
	.cfi_endproc
.LFE3594:
	.globl	__gxx_personality_v0
	.section	.gcc_except_table,"a",@progbits
.LLSDA3594:
	.byte	0xff
	.byte	0xff
	.byte	0x1
	.uleb128 .LLSDACSE3594-.LLSDACSB3594
.LLSDACSB3594:
	.uleb128 .LEHB0-.LFB3594
	.uleb128 .LEHE0-.LEHB0
	.uleb128 0
	.uleb128 0
	.uleb128 .LEHB1-.LFB3594
	.uleb128 .LEHE1-.LEHB1
	.uleb128 .L80-.LFB3594
	.uleb128 0
	.uleb128 .LEHB2-.LFB3594
	.uleb128 .LEHE2-.LEHB2
	.uleb128 .L82-.LFB3594
	.uleb128 0
	.uleb128 .LEHB3-.LFB3594
	.uleb128 .LEHE3-.LEHB3
	.uleb128 .L81-.LFB3594
	.uleb128 0
	.uleb128 .LEHB4-.LFB3594
	.uleb128 .LEHE4-.LEHB4
	.uleb128 0
	.uleb128 0
.LLSDACSE3594:
	.text
	.size	_ZNK8frontend11SymbolTable15get_scoped_nameENSt7__cxx1112basic_stringIcSt11char_traitsIcESaIcEEE, .-_ZNK8frontend11SymbolTable15get_scoped_nameENSt7__cxx1112basic_stringIcSt11char_traitsIcESaIcEEE
	.align 2
	.p2align 4,,15
	.globl	_ZNK8frontend11SymbolTable16getCurrScopeNameB5cxx11Ev
	.type	_ZNK8frontend11SymbolTable16getCurrScopeNameB5cxx11Ev, @function
_ZNK8frontend11SymbolTable16getCurrScopeNameB5cxx11Ev:
.LFB3606:
	.cfi_startproc
	pushq	%r12
	.cfi_def_cfa_offset 16
	.cfi_offset 12, -16
	pushq	%rbp
	.cfi_def_cfa_offset 24
	.cfi_offset 6, -24
	movq	%rdi, %rbp
	pushq	%rbx
	.cfi_def_cfa_offset 32
	.cfi_offset 3, -32
	subq	$16, %rsp
	.cfi_def_cfa_offset 48
	movq	(%rsi), %rdx
	movq	%fs:40, %rax
	movq	%rax, 8(%rsp)
	xorl	%eax, %eax
	movq	8(%rsi), %rax
	subq	%rdx, %rax
	sarq	$3, %rax
	imull	$-1171354717, %eax, %eax
	subl	$1, %eax
	cltq
	leaq	(%rax,%rax,4), %rcx
	leaq	(%rax,%rcx,2), %rax
	leaq	(%rdx,%rax,8), %rdx
	leaq	16(%rdi), %rax
	movq	%rax, (%rdi)
	movq	8(%rdx), %r12
	movq	16(%rdx), %rbx
	movq	%r12, %rdi
	addq	%rbx, %rdi
	je	.L96
	testq	%r12, %r12
	je	.L112
.L96:
	cmpq	$15, %rbx
	movq	%rbx, (%rsp)
	ja	.L113
	cmpq	$1, %rbx
	jne	.L99
	movzbl	(%r12), %edx
	movb	%dl, 16(%rbp)
.L100:
	movq	8(%rsp), %rcx
	xorq	%fs:40, %rcx
	movq	%rbx, 8(%rbp)
	movb	$0, (%rax,%rbx)
	movq	%rbp, %rax
	jne	.L114
	addq	$16, %rsp
	.cfi_remember_state
	.cfi_def_cfa_offset 32
	popq	%rbx
	.cfi_def_cfa_offset 24
	popq	%rbp
	.cfi_def_cfa_offset 16
	popq	%r12
	.cfi_def_cfa_offset 8
	ret
	.p2align 4,,10
	.p2align 3
.L113:
	.cfi_restore_state
	xorl	%edx, %edx
	movq	%rsp, %rsi
	movq	%rbp, %rdi
	call	_ZNSt7__cxx1112basic_stringIcSt11char_traitsIcESaIcEE9_M_createERmm@PLT
	movq	(%rsp), %rdx
	movq	%rax, 0(%rbp)
	movq	%rdx, 16(%rbp)
.L98:
	movq	%rbx, %rdx
	movq	%r12, %rsi
	movq	%rax, %rdi
	call	memcpy@PLT
	movq	(%rsp), %rbx
	movq	0(%rbp), %rax
	jmp	.L100
	.p2align 4,,10
	.p2align 3
.L99:
	testq	%rbx, %rbx
	je	.L100
	jmp	.L98
.L112:
	leaq	.LC4(%rip), %rdi
	call	_ZSt19__throw_logic_errorPKc@PLT
.L114:
	call	__stack_chk_fail@PLT
	.cfi_endproc
.LFE3606:
	.size	_ZNK8frontend11SymbolTable16getCurrScopeNameB5cxx11Ev, .-_ZNK8frontend11SymbolTable16getCurrScopeNameB5cxx11Ev
	.section	.text._ZN2ir8FunctionD2Ev,"axG",@progbits,_ZN2ir8FunctionD5Ev,comdat
	.align 2
	.p2align 4,,15
	.weak	_ZN2ir8FunctionD2Ev
	.type	_ZN2ir8FunctionD2Ev, @function
_ZN2ir8FunctionD2Ev:
.LFB3630:
	.cfi_startproc
	pushq	%r12
	.cfi_def_cfa_offset 16
	.cfi_offset 12, -16
	pushq	%rbp
	.cfi_def_cfa_offset 24
	.cfi_offset 6, -24
	movq	%rdi, %rbp
	pushq	%rbx
	.cfi_def_cfa_offset 32
	.cfi_offset 3, -32
	movq	64(%rdi), %rdi
	testq	%rdi, %rdi
	je	.L116
	call	_ZdlPv@PLT
.L116:
	movq	48(%rbp), %rdx
	movq	40(%rbp), %rax
	cmpq	%rax, %rdx
	je	.L117
	leaq	40(%rax), %rbx
	subq	%rbx, %rdx
	shrq	$3, %rdx
	leaq	40(%rax,%rdx,8), %r12
	jmp	.L118
	.p2align 4,,10
	.p2align 3
.L131:
	call	_ZdlPv@PLT
	cmpq	%rbx, %r12
	movq	%rbx, %rax
	je	.L120
.L121:
	addq	$40, %rbx
.L118:
	movq	(%rax), %rdi
	addq	$16, %rax
	cmpq	%rax, %rdi
	jne	.L131
	cmpq	%r12, %rbx
	movq	%rbx, %rax
	jne	.L121
.L120:
	movq	40(%rbp), %rax
.L117:
	testq	%rax, %rax
	je	.L122
	movq	%rax, %rdi
	call	_ZdlPv@PLT
.L122:
	movq	0(%rbp), %rdi
	addq	$16, %rbp
	cmpq	%rbp, %rdi
	je	.L115
	popq	%rbx
	.cfi_remember_state
	.cfi_def_cfa_offset 24
	popq	%rbp
	.cfi_def_cfa_offset 16
	popq	%r12
	.cfi_def_cfa_offset 8
	jmp	_ZdlPv@PLT
	.p2align 4,,10
	.p2align 3
.L115:
	.cfi_restore_state
	popq	%rbx
	.cfi_def_cfa_offset 24
	popq	%rbp
	.cfi_def_cfa_offset 16
	popq	%r12
	.cfi_def_cfa_offset 8
	ret
	.cfi_endproc
.LFE3630:
	.size	_ZN2ir8FunctionD2Ev, .-_ZN2ir8FunctionD2Ev
	.weak	_ZN2ir8FunctionD1Ev
	.set	_ZN2ir8FunctionD1Ev,_ZN2ir8FunctionD2Ev
	.text
	.align 2
	.p2align 4,,15
	.globl	_ZN8frontend8Analyzer13analysisBTypeEPNS_5BTypeE
	.type	_ZN8frontend8Analyzer13analysisBTypeEPNS_5BTypeE, @function
_ZN8frontend8Analyzer13analysisBTypeEPNS_5BTypeE:
.LFB3665:
	.cfi_startproc
	pushq	%r12
	.cfi_def_cfa_offset 16
	.cfi_offset 12, -16
	pushq	%rbp
	.cfi_def_cfa_offset 24
	.cfi_offset 6, -24
	pushq	%rbx
	.cfi_def_cfa_offset 32
	.cfi_offset 3, -32
	movq	%rdi, %rbx
	subq	$16, %rsp
	.cfi_def_cfa_offset 48
	movq	%fs:40, %rax
	movq	%rax, 8(%rsp)
	xorl	%eax, %eax
	movq	24(%rdx), %rax
	movq	(%rax), %rdi
	testq	%rdi, %rdi
	je	.L133
	leaq	_ZTIN8frontend4TermE(%rip), %rdx
	leaq	_ZTIN8frontend7AstNodeE(%rip), %rsi
	xorl	%ecx, %ecx
	call	__dynamic_cast@PLT
	testq	%rax, %rax
	je	.L133
	movl	48(%rax), %edx
	leaq	24(%rbx), %rdi
	movq	%rdi, 8(%rbx)
	movl	%edx, (%rbx)
	movq	56(%rax), %r12
	movq	64(%rax), %rbp
	movq	%r12, %rax
	addq	%rbp, %rax
	je	.L135
	testq	%r12, %r12
	je	.L154
.L135:
	cmpq	$15, %rbp
	movq	%rbp, (%rsp)
	ja	.L155
	cmpq	$1, %rbp
	jne	.L138
	movzbl	(%r12), %eax
	movb	%al, 24(%rbx)
.L139:
	movq	8(%rsp), %rcx
	xorq	%fs:40, %rcx
	movq	%rbp, 16(%rbx)
	movq	%rbx, %rax
	movb	$0, (%rdi,%rbp)
	jne	.L156
	addq	$16, %rsp
	.cfi_remember_state
	.cfi_def_cfa_offset 32
	popq	%rbx
	.cfi_def_cfa_offset 24
	popq	%rbp
	.cfi_def_cfa_offset 16
	popq	%r12
	.cfi_def_cfa_offset 8
	ret
	.p2align 4,,10
	.p2align 3
.L155:
	.cfi_restore_state
	leaq	8(%rbx), %rdi
	movq	%rsp, %rsi
	xorl	%edx, %edx
	call	_ZNSt7__cxx1112basic_stringIcSt11char_traitsIcESaIcEE9_M_createERmm@PLT
	movq	%rax, %rdi
	movq	%rax, 8(%rbx)
	movq	(%rsp), %rax
	movq	%rax, 24(%rbx)
.L137:
	movq	%rbp, %rdx
	movq	%r12, %rsi
	call	memcpy@PLT
	movq	(%rsp), %rbp
	movq	8(%rbx), %rdi
	jmp	.L139
	.p2align 4,,10
	.p2align 3
.L138:
	testq	%rbp, %rbp
	je	.L139
	jmp	.L137
.L154:
	leaq	.LC4(%rip), %rdi
	call	_ZSt19__throw_logic_errorPKc@PLT
.L133:
	call	_ZN8frontend8Analyzer13analysisBTypeEPNS_5BTypeE.part.162
.L156:
	call	__stack_chk_fail@PLT
	.cfi_endproc
.LFE3665:
	.size	_ZN8frontend8Analyzer13analysisBTypeEPNS_5BTypeE, .-_ZN8frontend8Analyzer13analysisBTypeEPNS_5BTypeE
	.align 2
	.p2align 4,,15
	.globl	_ZN8frontend8Analyzer16analysisFuncTypeEPNS_8FuncTypeE
	.type	_ZN8frontend8Analyzer16analysisFuncTypeEPNS_8FuncTypeE, @function
_ZN8frontend8Analyzer16analysisFuncTypeEPNS_8FuncTypeE:
.LFB3675:
	.cfi_startproc
	pushq	%r12
	.cfi_def_cfa_offset 16
	.cfi_offset 12, -16
	pushq	%rbp
	.cfi_def_cfa_offset 24
	.cfi_offset 6, -24
	pushq	%rbx
	.cfi_def_cfa_offset 32
	.cfi_offset 3, -32
	movq	%rdi, %rbx
	subq	$16, %rsp
	.cfi_def_cfa_offset 48
	movq	%fs:40, %rax
	movq	%rax, 8(%rsp)
	xorl	%eax, %eax
	movq	24(%rdx), %rax
	movq	(%rax), %rdi
	testq	%rdi, %rdi
	je	.L158
	leaq	_ZTIN8frontend4TermE(%rip), %rdx
	leaq	_ZTIN8frontend7AstNodeE(%rip), %rsi
	xorl	%ecx, %ecx
	call	__dynamic_cast@PLT
	testq	%rax, %rax
	je	.L158
	movl	48(%rax), %edx
	leaq	24(%rbx), %rdi
	movq	%rdi, 8(%rbx)
	movl	%edx, (%rbx)
	movq	56(%rax), %r12
	movq	64(%rax), %rbp
	movq	%r12, %rax
	addq	%rbp, %rax
	je	.L160
	testq	%r12, %r12
	je	.L179
.L160:
	cmpq	$15, %rbp
	movq	%rbp, (%rsp)
	ja	.L180
	cmpq	$1, %rbp
	jne	.L163
	movzbl	(%r12), %eax
	movb	%al, 24(%rbx)
.L164:
	movq	8(%rsp), %rcx
	xorq	%fs:40, %rcx
	movq	%rbp, 16(%rbx)
	movq	%rbx, %rax
	movb	$0, (%rdi,%rbp)
	jne	.L181
	addq	$16, %rsp
	.cfi_remember_state
	.cfi_def_cfa_offset 32
	popq	%rbx
	.cfi_def_cfa_offset 24
	popq	%rbp
	.cfi_def_cfa_offset 16
	popq	%r12
	.cfi_def_cfa_offset 8
	ret
	.p2align 4,,10
	.p2align 3
.L180:
	.cfi_restore_state
	leaq	8(%rbx), %rdi
	movq	%rsp, %rsi
	xorl	%edx, %edx
	call	_ZNSt7__cxx1112basic_stringIcSt11char_traitsIcESaIcEE9_M_createERmm@PLT
	movq	%rax, %rdi
	movq	%rax, 8(%rbx)
	movq	(%rsp), %rax
	movq	%rax, 24(%rbx)
.L162:
	movq	%rbp, %rdx
	movq	%r12, %rsi
	call	memcpy@PLT
	movq	(%rsp), %rbp
	movq	8(%rbx), %rdi
	jmp	.L164
	.p2align 4,,10
	.p2align 3
.L163:
	testq	%rbp, %rbp
	je	.L164
	jmp	.L162
.L179:
	leaq	.LC4(%rip), %rdi
	call	_ZSt19__throw_logic_errorPKc@PLT
.L158:
	leaq	_ZZN8frontend8Analyzer16analysisFuncTypeEPNS_8FuncTypeEE19__PRETTY_FUNCTION__(%rip), %rcx
	leaq	.LC0(%rip), %rsi
	leaq	.LC1(%rip), %rdi
	movl	$747, %edx
	call	__assert_fail@PLT
.L181:
	call	__stack_chk_fail@PLT
	.cfi_endproc
.LFE3675:
	.size	_ZN8frontend8Analyzer16analysisFuncTypeEPNS_8FuncTypeE, .-_ZN8frontend8Analyzer16analysisFuncTypeEPNS_8FuncTypeE
	.align 2
	.p2align 4,,15
	.globl	_ZN8frontend8Analyzer14analysisNumberEPNS_6NumberERSt6vectorIPN2ir11InstructionESaIS6_EE
	.type	_ZN8frontend8Analyzer14analysisNumberEPNS_6NumberERSt6vectorIPN2ir11InstructionESaIS6_EE, @function
_ZN8frontend8Analyzer14analysisNumberEPNS_6NumberERSt6vectorIPN2ir11InstructionESaIS6_EE:
.LFB3700:
	.cfi_startproc
	.cfi_personality 0x9b,DW.ref.__gxx_personality_v0
	.cfi_lsda 0x1b,.LLSDA3700
	pushq	%r13
	.cfi_def_cfa_offset 16
	.cfi_offset 13, -16
	pushq	%r12
	.cfi_def_cfa_offset 24
	.cfi_offset 12, -24
	pushq	%rbp
	.cfi_def_cfa_offset 32
	.cfi_offset 6, -32
	pushq	%rbx
	.cfi_def_cfa_offset 40
	.cfi_offset 3, -40
	subq	$72, %rsp
	.cfi_def_cfa_offset 112
	movq	%fs:40, %rax
	movq	%rax, 56(%rsp)
	xorl	%eax, %eax
	movq	24(%rsi), %rax
	movq	(%rax), %rdi
	testq	%rdi, %rdi
	je	.L183
	movq	%rsi, %r12
	leaq	_ZTIN8frontend4TermE(%rip), %rdx
	leaq	_ZTIN8frontend7AstNodeE(%rip), %rsi
	xorl	%ecx, %ecx
	call	__dynamic_cast@PLT
	testq	%rax, %rax
	je	.L183
	movl	48(%rax), %edx
	movq	56(%rax), %r13
	leaq	16(%rsp), %rbp
	movq	64(%rax), %rbx
	movl	%edx, 16(%rsp)
	movq	%r13, %rax
	leaq	24(%rbp), %rdx
	addq	%rbx, %rax
	movq	%rdx, 24(%rsp)
	je	.L185
	testq	%r13, %r13
	je	.L208
.L185:
	cmpq	$15, %rbx
	movq	%rbx, 8(%rsp)
	ja	.L209
	cmpq	$1, %rbx
	jne	.L188
	movzbl	0(%r13), %eax
	movb	%al, 40(%rsp)
	leaq	24(%rbp), %rax
.L189:
	leaq	8(%rbp), %rsi
	leaq	56(%r12), %rdi
	movq	%rbx, 32(%rsp)
	movb	$0, (%rax,%rbx)
.LEHB5:
	call	_ZNSt7__cxx1112basic_stringIcSt11char_traitsIcESaIcEE9_M_assignERKS4_@PLT
.LEHE5:
	xorl	%eax, %eax
	cmpl	$2, 16(%rsp)
	movq	24(%rsp), %rdi
	movb	$1, 48(%r12)
	sete	%al
	addq	$24, %rbp
	addl	$2, %eax
	cmpq	%rbp, %rdi
	movl	%eax, 88(%r12)
	je	.L182
	call	_ZdlPv@PLT
.L182:
	movq	56(%rsp), %rax
	xorq	%fs:40, %rax
	jne	.L210
	addq	$72, %rsp
	.cfi_remember_state
	.cfi_def_cfa_offset 40
	popq	%rbx
	.cfi_def_cfa_offset 32
	popq	%rbp
	.cfi_def_cfa_offset 24
	popq	%r12
	.cfi_def_cfa_offset 16
	popq	%r13
	.cfi_def_cfa_offset 8
	ret
	.p2align 4,,10
	.p2align 3
.L209:
	.cfi_restore_state
	leaq	8(%rsp), %rsi
	leaq	8(%rbp), %rdi
	xorl	%edx, %edx
.LEHB6:
	call	_ZNSt7__cxx1112basic_stringIcSt11char_traitsIcESaIcEE9_M_createERmm@PLT
	movq	8(%rsp), %rdx
	movq	%rax, 24(%rsp)
	movq	%rdx, 40(%rsp)
.L187:
	movq	%rbx, %rdx
	movq	%r13, %rsi
	movq	%rax, %rdi
	call	memcpy@PLT
	movq	8(%rsp), %rbx
	movq	24(%rsp), %rax
	jmp	.L189
	.p2align 4,,10
	.p2align 3
.L188:
	testq	%rbx, %rbx
	leaq	24(%rbp), %rax
	je	.L189
	jmp	.L187
.L208:
	leaq	.LC4(%rip), %rdi
	call	_ZSt19__throw_logic_errorPKc@PLT
.L183:
	leaq	_ZZN8frontend8Analyzer14analysisNumberEPNS_6NumberERSt6vectorIPN2ir11InstructionESaIS6_EEE19__PRETTY_FUNCTION__(%rip), %rcx
	leaq	.LC0(%rip), %rsi
	leaq	.LC1(%rip), %rdi
	movl	$1183, %edx
	call	__assert_fail@PLT
.L210:
	call	__stack_chk_fail@PLT
.L197:
	movq	24(%rsp), %rdi
	addq	$24, %rbp
	movq	%rax, %rbx
	cmpq	%rbp, %rdi
	je	.L193
	call	_ZdlPv@PLT
.L193:
	movq	%rbx, %rdi
	call	_Unwind_Resume@PLT
.LEHE6:
	.cfi_endproc
.LFE3700:
	.section	.gcc_except_table
.LLSDA3700:
	.byte	0xff
	.byte	0xff
	.byte	0x1
	.uleb128 .LLSDACSE3700-.LLSDACSB3700
.LLSDACSB3700:
	.uleb128 .LEHB5-.LFB3700
	.uleb128 .LEHE5-.LEHB5
	.uleb128 .L197-.LFB3700
	.uleb128 0
	.uleb128 .LEHB6-.LFB3700
	.uleb128 .LEHE6-.LEHB6
	.uleb128 0
	.uleb128 0
.LLSDACSE3700:
	.text
	.size	_ZN8frontend8Analyzer14analysisNumberEPNS_6NumberERSt6vectorIPN2ir11InstructionESaIS6_EE, .-_ZN8frontend8Analyzer14analysisNumberEPNS_6NumberERSt6vectorIPN2ir11InstructionESaIS6_EE
	.section	.rodata.str1.1
.LC7:
	.string	"son"
	.text
	.align 2
	.p2align 4,,15
	.globl	_ZN8frontend8Analyzer15analysisUnaryOpEPNS_7UnaryOpERSt6vectorIPN2ir11InstructionESaIS6_EE
	.type	_ZN8frontend8Analyzer15analysisUnaryOpEPNS_7UnaryOpERSt6vectorIPN2ir11InstructionESaIS6_EE, @function
_ZN8frontend8Analyzer15analysisUnaryOpEPNS_7UnaryOpERSt6vectorIPN2ir11InstructionESaIS6_EE:
.LFB3703:
	.cfi_startproc
	pushq	%r12
	.cfi_def_cfa_offset 16
	.cfi_offset 12, -16
	pushq	%rbp
	.cfi_def_cfa_offset 24
	.cfi_offset 6, -24
	pushq	%rbx
	.cfi_def_cfa_offset 32
	.cfi_offset 3, -32
	movq	%rdi, %rbx
	subq	$16, %rsp
	.cfi_def_cfa_offset 48
	movq	%fs:40, %rax
	movq	%rax, 8(%rsp)
	xorl	%eax, %eax
	movq	24(%rdx), %rax
	movq	(%rax), %rdi
	testq	%rdi, %rdi
	je	.L212
	leaq	_ZTIN8frontend4TermE(%rip), %rdx
	leaq	_ZTIN8frontend7AstNodeE(%rip), %rsi
	xorl	%ecx, %ecx
	call	__dynamic_cast@PLT
	testq	%rax, %rax
	je	.L212
	movl	48(%rax), %edx
	leaq	24(%rbx), %rdi
	movq	%rdi, 8(%rbx)
	movl	%edx, (%rbx)
	movq	56(%rax), %r12
	movq	64(%rax), %rbp
	movq	%r12, %rax
	addq	%rbp, %rax
	je	.L214
	testq	%r12, %r12
	je	.L233
.L214:
	cmpq	$15, %rbp
	movq	%rbp, (%rsp)
	ja	.L234
	cmpq	$1, %rbp
	jne	.L217
	movzbl	(%r12), %eax
	movb	%al, 24(%rbx)
.L218:
	movq	8(%rsp), %rcx
	xorq	%fs:40, %rcx
	movq	%rbp, 16(%rbx)
	movq	%rbx, %rax
	movb	$0, (%rdi,%rbp)
	jne	.L235
	addq	$16, %rsp
	.cfi_remember_state
	.cfi_def_cfa_offset 32
	popq	%rbx
	.cfi_def_cfa_offset 24
	popq	%rbp
	.cfi_def_cfa_offset 16
	popq	%r12
	.cfi_def_cfa_offset 8
	ret
	.p2align 4,,10
	.p2align 3
.L234:
	.cfi_restore_state
	leaq	8(%rbx), %rdi
	movq	%rsp, %rsi
	xorl	%edx, %edx
	call	_ZNSt7__cxx1112basic_stringIcSt11char_traitsIcESaIcEE9_M_createERmm@PLT
	movq	%rax, %rdi
	movq	%rax, 8(%rbx)
	movq	(%rsp), %rax
	movq	%rax, 24(%rbx)
.L216:
	movq	%rbp, %rdx
	movq	%r12, %rsi
	call	memcpy@PLT
	movq	(%rsp), %rbp
	movq	8(%rbx), %rdi
	jmp	.L218
	.p2align 4,,10
	.p2align 3
.L217:
	testq	%rbp, %rbp
	je	.L218
	jmp	.L216
.L233:
	leaq	.LC4(%rip), %rdi
	call	_ZSt19__throw_logic_errorPKc@PLT
.L212:
	leaq	_ZZN8frontend8Analyzer15analysisUnaryOpEPNS_7UnaryOpERSt6vectorIPN2ir11InstructionESaIS6_EEE19__PRETTY_FUNCTION__(%rip), %rcx
	leaq	.LC0(%rip), %rsi
	leaq	.LC7(%rip), %rdi
	movl	$1362, %edx
	call	__assert_fail@PLT
.L235:
	call	__stack_chk_fail@PLT
	.cfi_endproc
.LFE3703:
	.size	_ZN8frontend8Analyzer15analysisUnaryOpEPNS_7UnaryOpERSt6vectorIPN2ir11InstructionESaIS6_EE, .-_ZN8frontend8Analyzer15analysisUnaryOpEPNS_7UnaryOpERSt6vectorIPN2ir11InstructionESaIS6_EE
	.section	.rodata.str1.1
.LC8:
	.string	"%f"
	.text
	.align 2
	.p2align 4,,15
	.globl	_ZN8frontend8Analyzer20constNumberComputingEN2ir7OperandES2_RS2_NS_9TokenTypeE
	.type	_ZN8frontend8Analyzer20constNumberComputingEN2ir7OperandES2_RS2_NS_9TokenTypeE, @function
_ZN8frontend8Analyzer20constNumberComputingEN2ir7OperandES2_RS2_NS_9TokenTypeE:
.LFB3711:
	.cfi_startproc
	.cfi_personality 0x9b,DW.ref.__gxx_personality_v0
	.cfi_lsda 0x1b,.LLSDA3711
	pushq	%r15
	.cfi_def_cfa_offset 16
	.cfi_offset 15, -16
	pushq	%r14
	.cfi_def_cfa_offset 24
	.cfi_offset 14, -24
	pushq	%r13
	.cfi_def_cfa_offset 32
	.cfi_offset 13, -32
	pushq	%r12
	.cfi_def_cfa_offset 40
	.cfi_offset 12, -40
	pushq	%rbp
	.cfi_def_cfa_offset 48
	.cfi_offset 6, -48
	pushq	%rbx
	.cfi_def_cfa_offset 56
	.cfi_offset 3, -56
	movq	%rdx, %rbp
	subq	$392, %rsp
	.cfi_def_cfa_offset 448
	movq	%fs:40, %rax
	movq	%rax, 376(%rsp)
	xorl	%eax, %eax
	movl	32(%rsi), %eax
	leal	-2(%rax), %edx
	xorl	%eax, %eax
	cmpl	$1, %edx
	jbe	.L295
.L236:
	movq	376(%rsp), %rcx
	xorq	%fs:40, %rcx
	jne	.L296
	addq	$392, %rsp
	.cfi_remember_state
	.cfi_def_cfa_offset 56
	popq	%rbx
	.cfi_def_cfa_offset 48
	popq	%rbp
	.cfi_def_cfa_offset 40
	popq	%r12
	.cfi_def_cfa_offset 32
	popq	%r13
	.cfi_def_cfa_offset 24
	popq	%r14
	.cfi_def_cfa_offset 16
	popq	%r15
	.cfi_def_cfa_offset 8
	ret
	.p2align 4,,10
	.p2align 3
.L295:
	.cfi_restore_state
	movq	%rcx, %r13
	movl	32(%rbp), %ecx
	leal	-2(%rcx), %edx
	cmpl	$1, %edx
	ja	.L236
	movq	%rsi, %rbx
	leaq	16(%rsp), %r14
	movq	(%rsi), %rsi
	movq	8(%rbx), %rdx
	leaq	48(%rsp), %r15
	movl	%r8d, %r12d
	leaq	16(%r14), %rax
	movq	%r14, %rdi
	addq	%rsi, %rdx
	movq	%rax, 16(%rsp)
.LEHB7:
	call	_ZNSt7__cxx1112basic_stringIcSt11char_traitsIcESaIcEE12_M_constructIPcEEvT_S7_St20forward_iterator_tag.isra.160
.LEHE7:
	movq	0(%rbp), %rsi
	movq	8(%rbp), %rdx
	leaq	16(%r15), %rax
	movq	%r15, %rdi
	movq	%rax, 48(%rsp)
	addq	%rsi, %rdx
.LEHB8:
	call	_ZNSt7__cxx1112basic_stringIcSt11char_traitsIcESaIcEE12_M_constructIPcEEvT_S7_St20forward_iterator_tag.isra.160
.LEHE8:
	movq	16(%rsp), %rsi
	movq	24(%rsp), %rdx
	addq	%rsi, %rdx
	cmpl	$2, 32(%rbx)
	leaq	336(%rsp), %rbx
	leaq	16(%rbx), %rax
	jne	.L238
	cmpl	$2, 32(%rbp)
	jne	.L238
	movq	%rbx, %rdi
	movq	%rax, 336(%rsp)
.LEHB9:
	call	_ZNSt7__cxx1112basic_stringIcSt11char_traitsIcESaIcEE12_M_constructIPcEEvT_S7_St20forward_iterator_tag.isra.160
.LEHE9:
	movq	%rbx, %rdi
.LEHB10:
	call	_ZN8frontend7evalIntENSt7__cxx1112basic_stringIcSt11char_traitsIcESaIcEEE@PLT
.LEHE10:
	movq	336(%rsp), %rdi
	movl	%eax, %ebp
	leaq	16(%rbx), %rax
	cmpq	%rax, %rdi
	je	.L239
	call	_ZdlPv@PLT
.L239:
	movq	48(%rsp), %rsi
	movq	56(%rsp), %rdx
	leaq	16(%rbx), %rax
	movq	%rbx, %rdi
	movq	%rax, 336(%rsp)
	addq	%rsi, %rdx
.LEHB11:
	call	_ZNSt7__cxx1112basic_stringIcSt11char_traitsIcESaIcEE12_M_constructIPcEEvT_S7_St20forward_iterator_tag.isra.160
.LEHE11:
	movq	%rbx, %rdi
.LEHB12:
	call	_ZN8frontend7evalIntENSt7__cxx1112basic_stringIcSt11char_traitsIcESaIcEEE@PLT
.LEHE12:
	movq	336(%rsp), %rdi
	addq	$16, %rbx
	movl	%eax, %ecx
	cmpq	%rbx, %rdi
	je	.L240
	movl	%eax, 8(%rsp)
	call	_ZdlPv@PLT
	movl	8(%rsp), %ecx
.L240:
	subl	$13, %r12d
	movl	$2, 32(%r13)
	cmpl	$4, %r12d
	ja	.L248
	leaq	.L243(%rip), %rdx
	movslq	(%rdx,%r12,4), %rax
	addq	%rdx, %rax
	jmp	*%rax
	.section	.rodata
	.align 4
	.align 4
.L243:
	.long	.L242-.L243
	.long	.L244-.L243
	.long	.L245-.L243
	.long	.L246-.L243
	.long	.L247-.L243
	.text
	.p2align 4,,10
	.p2align 3
.L238:
	movq	%rbx, %rdi
	movq	%rax, 336(%rsp)
.LEHB13:
	call	_ZNSt7__cxx1112basic_stringIcSt11char_traitsIcESaIcEE12_M_constructIPcEEvT_S7_St20forward_iterator_tag.isra.160
.LEHE13:
	movq	%rbx, %rdi
.LEHB14:
	call	_ZN8frontend9evalFloatENSt7__cxx1112basic_stringIcSt11char_traitsIcESaIcEEE@PLT
.LEHE14:
	movq	336(%rsp), %rdi
	leaq	16(%rbx), %rax
	movss	%xmm0, 8(%rsp)
	cmpq	%rax, %rdi
	je	.L254
	call	_ZdlPv@PLT
.L254:
	movq	48(%rsp), %rsi
	movq	56(%rsp), %rdx
	leaq	16(%rbx), %rax
	movq	%rbx, %rdi
	movq	%rax, 336(%rsp)
	addq	%rsi, %rdx
.LEHB15:
	call	_ZNSt7__cxx1112basic_stringIcSt11char_traitsIcESaIcEE12_M_constructIPcEEvT_S7_St20forward_iterator_tag.isra.160
.LEHE15:
	movq	%rbx, %rdi
.LEHB16:
	call	_ZN8frontend9evalFloatENSt7__cxx1112basic_stringIcSt11char_traitsIcESaIcEEE@PLT
.LEHE16:
	movq	336(%rsp), %rdi
	leaq	16(%rbx), %rax
	cmpq	%rax, %rdi
	je	.L255
	movss	%xmm0, 12(%rsp)
	call	_ZdlPv@PLT
	movss	12(%rsp), %xmm0
.L255:
	cmpl	$14, %r12d
	movl	$3, 32(%r13)
	je	.L256
	jle	.L297
	cmpl	$15, %r12d
	je	.L259
	cmpl	$16, %r12d
	jne	.L248
	movss	8(%rsp), %xmm2
	movq	vsnprintf@GOTPCREL(%rip), %rsi
	leaq	.LC8(%rip), %rcx
	divss	%xmm0, %xmm2
	movl	$58, %edx
	movq	%rbx, %rdi
	movl	$1, %eax
	pxor	%xmm0, %xmm0
	cvtss2sd	%xmm2, %xmm0
.LEHB17:
	call	_ZN9__gnu_cxx12__to_xstringINSt7__cxx1112basic_stringIcSt11char_traitsIcESaIcEEEcEET_PFiPT0_mPKS8_P13__va_list_tagEmSB_z.constprop.314
	movq	%rbx, %rsi
	movq	%r13, %rdi
	addq	$16, %rbx
	call	_ZNSt7__cxx1112basic_stringIcSt11char_traitsIcESaIcEEaSEOS4_@PLT
	movq	336(%rsp), %rdi
	cmpq	%rbx, %rdi
	je	.L248
.L289:
	call	_ZdlPv@PLT
.L248:
	movq	48(%rsp), %rdi
	addq	$16, %r15
	cmpq	%r15, %rdi
	je	.L265
	call	_ZdlPv@PLT
.L265:
	movq	16(%rsp), %rdi
	addq	$16, %r14
	movl	$1, %eax
	cmpq	%r14, %rdi
	je	.L236
	movb	%al, 8(%rsp)
	call	_ZdlPv@PLT
	movzbl	8(%rsp), %eax
	jmp	.L236
	.p2align 4,,10
	.p2align 3
.L297:
	cmpl	$13, %r12d
	jne	.L248
	addss	8(%rsp), %xmm0
	leaq	240(%rsp), %rbx
	movq	vsnprintf@GOTPCREL(%rip), %rsi
	leaq	.LC8(%rip), %rcx
	movl	$58, %edx
	movl	$1, %eax
	movq	%rbx, %rdi
	cvtss2sd	%xmm0, %xmm0
	call	_ZN9__gnu_cxx12__to_xstringINSt7__cxx1112basic_stringIcSt11char_traitsIcESaIcEEEcEET_PFiPT0_mPKS8_P13__va_list_tagEmSB_z.constprop.314
	movq	%rbx, %rsi
	movq	%r13, %rdi
	addq	$16, %rbx
	call	_ZNSt7__cxx1112basic_stringIcSt11char_traitsIcESaIcEEaSEOS4_@PLT
	movq	240(%rsp), %rdi
	cmpq	%rbx, %rdi
	jne	.L289
	jmp	.L248
.L246:
	movl	%ebp, %eax
	leaq	176(%rsp), %rbx
	movq	vsnprintf@GOTPCREL(%rip), %rsi
	cltd
	idivl	%ecx
	leaq	.LC5(%rip), %rcx
	movl	$16, %edx
	movq	%rbx, %rdi
	movl	%eax, %r8d
	xorl	%eax, %eax
	call	_ZN9__gnu_cxx12__to_xstringINSt7__cxx1112basic_stringIcSt11char_traitsIcESaIcEEEcEET_PFiPT0_mPKS8_P13__va_list_tagEmSB_z.constprop.314
	movq	%rbx, %rsi
	movq	%r13, %rdi
	addq	$16, %rbx
	call	_ZNSt7__cxx1112basic_stringIcSt11char_traitsIcESaIcEEaSEOS4_@PLT
	movq	176(%rsp), %rdi
	cmpq	%rbx, %rdi
	jne	.L289
	jmp	.L248
.L245:
	movl	%ebp, %r8d
	leaq	144(%rsp), %rbx
	movq	vsnprintf@GOTPCREL(%rip), %rsi
	imull	%ecx, %r8d
	leaq	.LC5(%rip), %rcx
	movl	$16, %edx
	movq	%rbx, %rdi
	xorl	%eax, %eax
	call	_ZN9__gnu_cxx12__to_xstringINSt7__cxx1112basic_stringIcSt11char_traitsIcESaIcEEEcEET_PFiPT0_mPKS8_P13__va_list_tagEmSB_z.constprop.314
	movq	%rbx, %rsi
	movq	%r13, %rdi
	addq	$16, %rbx
	call	_ZNSt7__cxx1112basic_stringIcSt11char_traitsIcESaIcEEaSEOS4_@PLT
	movq	144(%rsp), %rdi
	cmpq	%rbx, %rdi
	jne	.L289
	jmp	.L248
.L244:
	leaq	112(%rsp), %rbx
	movl	%ebp, %r8d
	movq	vsnprintf@GOTPCREL(%rip), %rsi
	subl	%ecx, %r8d
	leaq	.LC5(%rip), %rcx
	movl	$16, %edx
	movq	%rbx, %rdi
	xorl	%eax, %eax
	call	_ZN9__gnu_cxx12__to_xstringINSt7__cxx1112basic_stringIcSt11char_traitsIcESaIcEEEcEET_PFiPT0_mPKS8_P13__va_list_tagEmSB_z.constprop.314
	movq	%rbx, %rsi
	movq	%r13, %rdi
	addq	$16, %rbx
	call	_ZNSt7__cxx1112basic_stringIcSt11char_traitsIcESaIcEEaSEOS4_@PLT
	movq	112(%rsp), %rdi
	cmpq	%rbx, %rdi
	jne	.L289
	jmp	.L248
.L247:
	movl	%ebp, %eax
	leaq	208(%rsp), %rbx
	movq	vsnprintf@GOTPCREL(%rip), %rsi
	cltd
	idivl	%ecx
	leaq	.LC5(%rip), %rcx
	movq	%rbx, %rdi
	xorl	%eax, %eax
	movl	%edx, %r8d
	movl	$16, %edx
	call	_ZN9__gnu_cxx12__to_xstringINSt7__cxx1112basic_stringIcSt11char_traitsIcESaIcEEEcEET_PFiPT0_mPKS8_P13__va_list_tagEmSB_z.constprop.314
	movq	%rbx, %rsi
	movq	%r13, %rdi
	addq	$16, %rbx
	call	_ZNSt7__cxx1112basic_stringIcSt11char_traitsIcESaIcEEaSEOS4_@PLT
	movq	208(%rsp), %rdi
	cmpq	%rbx, %rdi
	jne	.L289
	jmp	.L248
.L242:
	leaq	80(%rsp), %rbx
	movq	vsnprintf@GOTPCREL(%rip), %rsi
	leal	0(%rbp,%rcx), %r8d
	leaq	.LC5(%rip), %rcx
	movl	$16, %edx
	xorl	%eax, %eax
	movq	%rbx, %rdi
	call	_ZN9__gnu_cxx12__to_xstringINSt7__cxx1112basic_stringIcSt11char_traitsIcESaIcEEEcEET_PFiPT0_mPKS8_P13__va_list_tagEmSB_z.constprop.314
	movq	%rbx, %rsi
	movq	%r13, %rdi
	addq	$16, %rbx
	call	_ZNSt7__cxx1112basic_stringIcSt11char_traitsIcESaIcEEaSEOS4_@PLT
	movq	80(%rsp), %rdi
	cmpq	%rbx, %rdi
	jne	.L289
	jmp	.L248
	.p2align 4,,10
	.p2align 3
.L259:
	mulss	8(%rsp), %xmm0
	leaq	304(%rsp), %rbx
	movq	vsnprintf@GOTPCREL(%rip), %rsi
	leaq	.LC8(%rip), %rcx
	movl	$58, %edx
	movl	$1, %eax
	movq	%rbx, %rdi
	cvtss2sd	%xmm0, %xmm0
	call	_ZN9__gnu_cxx12__to_xstringINSt7__cxx1112basic_stringIcSt11char_traitsIcESaIcEEEcEET_PFiPT0_mPKS8_P13__va_list_tagEmSB_z.constprop.314
	movq	%rbx, %rsi
	movq	%r13, %rdi
	addq	$16, %rbx
	call	_ZNSt7__cxx1112basic_stringIcSt11char_traitsIcESaIcEEaSEOS4_@PLT
	movq	304(%rsp), %rdi
	cmpq	%rbx, %rdi
	jne	.L289
	jmp	.L248
	.p2align 4,,10
	.p2align 3
.L256:
	movss	8(%rsp), %xmm1
	leaq	272(%rsp), %rbx
	subss	%xmm0, %xmm1
	pxor	%xmm0, %xmm0
	movq	vsnprintf@GOTPCREL(%rip), %rsi
	leaq	.LC8(%rip), %rcx
	movl	$58, %edx
	movq	%rbx, %rdi
	movl	$1, %eax
	cvtss2sd	%xmm1, %xmm0
	call	_ZN9__gnu_cxx12__to_xstringINSt7__cxx1112basic_stringIcSt11char_traitsIcESaIcEEEcEET_PFiPT0_mPKS8_P13__va_list_tagEmSB_z.constprop.314
.LEHE17:
	movq	%rbx, %rsi
	movq	%r13, %rdi
	addq	$16, %rbx
	call	_ZNSt7__cxx1112basic_stringIcSt11char_traitsIcESaIcEEaSEOS4_@PLT
	movq	272(%rsp), %rdi
	cmpq	%rbx, %rdi
	jne	.L289
	jmp	.L248
.L296:
	call	__stack_chk_fail@PLT
.L286:
.L292:
	movq	336(%rsp), %rdi
	addq	$16, %rbx
	movq	%rax, %rbp
	cmpq	%rbx, %rdi
	je	.L268
	call	_ZdlPv@PLT
.L268:
	movq	48(%rsp), %rdi
	addq	$16, %r15
	cmpq	%r15, %rdi
	je	.L275
	call	_ZdlPv@PLT
.L275:
	movq	%rbp, %rbx
.L276:
	movq	16(%rsp), %rdi
	addq	$16, %r14
	cmpq	%r14, %rdi
	je	.L277
	call	_ZdlPv@PLT
.L277:
	movq	%rbx, %rdi
.LEHB18:
	call	_Unwind_Resume@PLT
.LEHE18:
.L283:
	movq	%rax, %rbp
	jmp	.L268
.L287:
	jmp	.L292
.L282:
	movq	%rax, %rbx
	jmp	.L276
.L285:
	jmp	.L292
.L284:
	jmp	.L292
	.cfi_endproc
.LFE3711:
	.section	.gcc_except_table
.LLSDA3711:
	.byte	0xff
	.byte	0xff
	.byte	0x1
	.uleb128 .LLSDACSE3711-.LLSDACSB3711
.LLSDACSB3711:
	.uleb128 .LEHB7-.LFB3711
	.uleb128 .LEHE7-.LEHB7
	.uleb128 0
	.uleb128 0
	.uleb128 .LEHB8-.LFB3711
	.uleb128 .LEHE8-.LEHB8
	.uleb128 .L282-.LFB3711
	.uleb128 0
	.uleb128 .LEHB9-.LFB3711
	.uleb128 .LEHE9-.LEHB9
	.uleb128 .L283-.LFB3711
	.uleb128 0
	.uleb128 .LEHB10-.LFB3711
	.uleb128 .LEHE10-.LEHB10
	.uleb128 .L284-.LFB3711
	.uleb128 0
	.uleb128 .LEHB11-.LFB3711
	.uleb128 .LEHE11-.LEHB11
	.uleb128 .L283-.LFB3711
	.uleb128 0
	.uleb128 .LEHB12-.LFB3711
	.uleb128 .LEHE12-.LEHB12
	.uleb128 .L285-.LFB3711
	.uleb128 0
	.uleb128 .LEHB13-.LFB3711
	.uleb128 .LEHE13-.LEHB13
	.uleb128 .L283-.LFB3711
	.uleb128 0
	.uleb128 .LEHB14-.LFB3711
	.uleb128 .LEHE14-.LEHB14
	.uleb128 .L286-.LFB3711
	.uleb128 0
	.uleb128 .LEHB15-.LFB3711
	.uleb128 .LEHE15-.LEHB15
	.uleb128 .L283-.LFB3711
	.uleb128 0
	.uleb128 .LEHB16-.LFB3711
	.uleb128 .LEHE16-.LEHB16
	.uleb128 .L287-.LFB3711
	.uleb128 0
	.uleb128 .LEHB17-.LFB3711
	.uleb128 .LEHE17-.LEHB17
	.uleb128 .L283-.LFB3711
	.uleb128 0
	.uleb128 .LEHB18-.LFB3711
	.uleb128 .LEHE18-.LEHB18
	.uleb128 0
	.uleb128 0
.LLSDACSE3711:
	.text
	.size	_ZN8frontend8Analyzer20constNumberComputingEN2ir7OperandES2_RS2_NS_9TokenTypeE, .-_ZN8frontend8Analyzer20constNumberComputingEN2ir7OperandES2_RS2_NS_9TokenTypeE
	.align 2
	.p2align 4,,15
	.globl	_ZNK8frontend8Analyzer17getReturnTempNameB5cxx11ERSt6vectorIN2ir7OperandESaIS3_EE
	.type	_ZNK8frontend8Analyzer17getReturnTempNameB5cxx11ERSt6vectorIN2ir7OperandESaIS3_EE, @function
_ZNK8frontend8Analyzer17getReturnTempNameB5cxx11ERSt6vectorIN2ir7OperandESaIS3_EE:
.LFB3712:
	.cfi_startproc
	.cfi_personality 0x9b,DW.ref.__gxx_personality_v0
	.cfi_lsda 0x1b,.LLSDA3712
	pushq	%r15
	.cfi_def_cfa_offset 16
	.cfi_offset 15, -16
	pushq	%r14
	.cfi_def_cfa_offset 24
	.cfi_offset 14, -24
	leaq	16(%rdi), %r15
	pushq	%r13
	.cfi_def_cfa_offset 32
	.cfi_offset 13, -32
	pushq	%r12
	.cfi_def_cfa_offset 40
	.cfi_offset 12, -40
	pushq	%rbp
	.cfi_def_cfa_offset 48
	.cfi_offset 6, -48
	pushq	%rbx
	.cfi_def_cfa_offset 56
	.cfi_offset 3, -56
	movq	%rdi, %rbp
	subq	$56, %rsp
	.cfi_def_cfa_offset 112
	movl	$1952805412, 16(%rdi)
	movb	$0, 20(%rdi)
	movq	(%rdx), %rbx
	movq	8(%rdx), %r12
	movq	%fs:40, %rax
	movq	%rax, 40(%rsp)
	xorl	%eax, %eax
	movq	%r15, (%rdi)
	movq	$4, 8(%rdi)
	cmpq	%r12, %rbx
	je	.L298
	movq	%rsp, %r13
	leaq	16(%r13), %r14
	.p2align 4,,10
	.p2align 3
.L300:
	movq	%rbx, %rsi
	movq	%r13, %rdi
.LEHB19:
	call	_ZN2ir7OperandC1ERKS0_@PLT
.LEHE19:
	movq	8(%rsp), %rdx
	movq	(%rsp), %rsi
	movq	%rbp, %rdi
.LEHB20:
	call	_ZNSt7__cxx1112basic_stringIcSt11char_traitsIcESaIcEE9_M_appendEPKcm@PLT
.LEHE20:
	movq	(%rsp), %rdi
	cmpq	%r14, %rdi
	je	.L301
	addq	$40, %rbx
	call	_ZdlPv@PLT
	cmpq	%rbx, %r12
	jne	.L300
.L298:
	movq	40(%rsp), %rcx
	xorq	%fs:40, %rcx
	movq	%rbp, %rax
	jne	.L311
	addq	$56, %rsp
	.cfi_remember_state
	.cfi_def_cfa_offset 56
	popq	%rbx
	.cfi_def_cfa_offset 48
	popq	%rbp
	.cfi_def_cfa_offset 40
	popq	%r12
	.cfi_def_cfa_offset 32
	popq	%r13
	.cfi_def_cfa_offset 24
	popq	%r14
	.cfi_def_cfa_offset 16
	popq	%r15
	.cfi_def_cfa_offset 8
	ret
	.p2align 4,,10
	.p2align 3
.L301:
	.cfi_restore_state
	addq	$40, %rbx
	cmpq	%rbx, %r12
	jne	.L300
	jmp	.L298
.L311:
	call	__stack_chk_fail@PLT
.L309:
	movq	(%rsp), %rdi
	addq	$16, %r13
	movq	%rax, %rbx
	cmpq	%r13, %rdi
	je	.L305
	call	_ZdlPv@PLT
.L305:
	movq	0(%rbp), %rdi
	cmpq	%r15, %rdi
	je	.L306
	call	_ZdlPv@PLT
.L306:
	movq	%rbx, %rdi
.LEHB21:
	call	_Unwind_Resume@PLT
.LEHE21:
.L308:
	movq	%rax, %rbx
	jmp	.L305
	.cfi_endproc
.LFE3712:
	.section	.gcc_except_table
.LLSDA3712:
	.byte	0xff
	.byte	0xff
	.byte	0x1
	.uleb128 .LLSDACSE3712-.LLSDACSB3712
.LLSDACSB3712:
	.uleb128 .LEHB19-.LFB3712
	.uleb128 .LEHE19-.LEHB19
	.uleb128 .L308-.LFB3712
	.uleb128 0
	.uleb128 .LEHB20-.LFB3712
	.uleb128 .LEHE20-.LEHB20
	.uleb128 .L309-.LFB3712
	.uleb128 0
	.uleb128 .LEHB21-.LFB3712
	.uleb128 .LEHE21-.LEHB21
	.uleb128 0
	.uleb128 0
.LLSDACSE3712:
	.text
	.size	_ZNK8frontend8Analyzer17getReturnTempNameB5cxx11ERSt6vectorIN2ir7OperandESaIS3_EE, .-_ZNK8frontend8Analyzer17getReturnTempNameB5cxx11ERSt6vectorIN2ir7OperandESaIS3_EE
	.section	.text._ZN9__gnu_cxx6__stoaIlicJiEEET0_PFT_PKT1_PPS3_DpT2_EPKcS5_PmS9_,"axG",@progbits,_ZN9__gnu_cxx6__stoaIlicJiEEET0_PFT_PKT1_PPS3_DpT2_EPKcS5_PmS9_,comdat
	.p2align 4,,15
	.weak	_ZN9__gnu_cxx6__stoaIlicJiEEET0_PFT_PKT1_PPS3_DpT2_EPKcS5_PmS9_
	.type	_ZN9__gnu_cxx6__stoaIlicJiEEET0_PFT_PKT1_PPS3_DpT2_EPKcS5_PmS9_, @function
_ZN9__gnu_cxx6__stoaIlicJiEEET0_PFT_PKT1_PPS3_DpT2_EPKcS5_PmS9_:
.LFB3714:
	.cfi_startproc
	.cfi_personality 0x9b,DW.ref.__gxx_personality_v0
	.cfi_lsda 0x1b,.LLSDA3714
	pushq	%r15
	.cfi_def_cfa_offset 16
	.cfi_offset 15, -16
	pushq	%r14
	.cfi_def_cfa_offset 24
	.cfi_offset 14, -24
	movq	%rdi, %r15
	pushq	%r13
	.cfi_def_cfa_offset 32
	.cfi_offset 13, -32
	pushq	%r12
	.cfi_def_cfa_offset 40
	.cfi_offset 12, -40
	movq	%rsi, %r14
	pushq	%rbp
	.cfi_def_cfa_offset 48
	.cfi_offset 6, -48
	pushq	%rbx
	.cfi_def_cfa_offset 56
	.cfi_offset 3, -56
	movq	%rdx, %rbp
	movq	%rcx, %r12
	subq	$40, %rsp
	.cfi_def_cfa_offset 96
	movl	%r8d, 12(%rsp)
	movq	%fs:40, %rax
	movq	%rax, 24(%rsp)
	xorl	%eax, %eax
	call	__errno_location@PLT
	movl	12(%rsp), %r8d
	movl	(%rax), %r13d
	movq	%rax, %rbx
	movl	$0, (%rax)
	leaq	16(%rsp), %rsi
	movq	%rbp, %rdi
	movl	%r8d, %edx
.LEHB22:
	call	*%r15
	movq	16(%rsp), %rdx
	cmpq	%rbp, %rdx
	je	.L329
	movl	(%rbx), %esi
	cmpl	$34, %esi
	je	.L314
	movl	$2147483648, %ecx
	movl	$4294967295, %edi
	addq	%rax, %rcx
	cmpq	%rdi, %rcx
	ja	.L314
	testq	%r12, %r12
	je	.L316
	subq	%rbp, %rdx
	movq	%rdx, (%r12)
.L316:
	testl	%esi, %esi
	jne	.L312
	movl	%r13d, (%rbx)
.L312:
	movq	24(%rsp), %rdi
	xorq	%fs:40, %rdi
	jne	.L330
	addq	$40, %rsp
	.cfi_remember_state
	.cfi_def_cfa_offset 56
	popq	%rbx
	.cfi_def_cfa_offset 48
	popq	%rbp
	.cfi_def_cfa_offset 40
	popq	%r12
	.cfi_def_cfa_offset 32
	popq	%r13
	.cfi_def_cfa_offset 24
	popq	%r14
	.cfi_def_cfa_offset 16
	popq	%r15
	.cfi_def_cfa_offset 8
	ret
.L314:
	.cfi_restore_state
	movq	%r14, %rdi
	call	_ZSt20__throw_out_of_rangePKc@PLT
.LEHE22:
.L321:
	cmpl	$0, (%rbx)
	jne	.L319
	movl	%r13d, (%rbx)
.L319:
	movq	%rax, %rdi
.LEHB23:
	call	_Unwind_Resume@PLT
.LEHE23:
.L329:
	movq	%r14, %rdi
.LEHB24:
	call	_ZSt24__throw_invalid_argumentPKc@PLT
.LEHE24:
.L330:
	call	__stack_chk_fail@PLT
	.cfi_endproc
.LFE3714:
	.section	.gcc_except_table
.LLSDA3714:
	.byte	0xff
	.byte	0xff
	.byte	0x1
	.uleb128 .LLSDACSE3714-.LLSDACSB3714
.LLSDACSB3714:
	.uleb128 .LEHB22-.LFB3714
	.uleb128 .LEHE22-.LEHB22
	.uleb128 .L321-.LFB3714
	.uleb128 0
	.uleb128 .LEHB23-.LFB3714
	.uleb128 .LEHE23-.LEHB23
	.uleb128 0
	.uleb128 0
	.uleb128 .LEHB24-.LFB3714
	.uleb128 .LEHE24-.LEHB24
	.uleb128 .L321-.LFB3714
	.uleb128 0
.LLSDACSE3714:
	.section	.text._ZN9__gnu_cxx6__stoaIlicJiEEET0_PFT_PKT1_PPS3_DpT2_EPKcS5_PmS9_,"axG",@progbits,_ZN9__gnu_cxx6__stoaIlicJiEEET0_PFT_PKT1_PPS3_DpT2_EPKcS5_PmS9_,comdat
	.size	_ZN9__gnu_cxx6__stoaIlicJiEEET0_PFT_PKT1_PPS3_DpT2_EPKcS5_PmS9_, .-_ZN9__gnu_cxx6__stoaIlicJiEEET0_PFT_PKT1_PPS3_DpT2_EPKcS5_PmS9_
	.section	.text._ZNSt6vectorIN2ir7OperandESaIS1_EED2Ev,"axG",@progbits,_ZNSt6vectorIN2ir7OperandESaIS1_EED5Ev,comdat
	.align 2
	.p2align 4,,15
	.weak	_ZNSt6vectorIN2ir7OperandESaIS1_EED2Ev
	.type	_ZNSt6vectorIN2ir7OperandESaIS1_EED2Ev, @function
_ZNSt6vectorIN2ir7OperandESaIS1_EED2Ev:
.LFB3967:
	.cfi_startproc
	movq	8(%rdi), %rdx
	movq	(%rdi), %rax
	cmpq	%rax, %rdx
	je	.L339
	pushq	%r12
	.cfi_def_cfa_offset 16
	.cfi_offset 12, -16
	pushq	%rbp
	.cfi_def_cfa_offset 24
	.cfi_offset 6, -24
	movq	%rdi, %r12
	pushq	%rbx
	.cfi_def_cfa_offset 32
	.cfi_offset 3, -32
	leaq	40(%rax), %rbx
	subq	%rbx, %rdx
	shrq	$3, %rdx
	leaq	40(%rax,%rdx,8), %rbp
	jmp	.L333
	.p2align 4,,10
	.p2align 3
.L344:
	call	_ZdlPv@PLT
	cmpq	%rbx, %rbp
	movq	%rbx, %rax
	je	.L335
.L336:
	addq	$40, %rbx
.L333:
	movq	(%rax), %rdi
	addq	$16, %rax
	cmpq	%rax, %rdi
	jne	.L344
	cmpq	%rbp, %rbx
	movq	%rbx, %rax
	jne	.L336
.L335:
	movq	(%r12), %rax
	testq	%rax, %rax
	je	.L331
	popq	%rbx
	.cfi_remember_state
	.cfi_restore 3
	.cfi_def_cfa_offset 24
	popq	%rbp
	.cfi_restore 6
	.cfi_def_cfa_offset 16
	popq	%r12
	.cfi_restore 12
	.cfi_def_cfa_offset 8
	movq	%rax, %rdi
	jmp	_ZdlPv@PLT
	.p2align 4,,10
	.p2align 3
.L331:
	.cfi_restore_state
	popq	%rbx
	.cfi_def_cfa_offset 24
	popq	%rbp
	.cfi_def_cfa_offset 16
	popq	%r12
	.cfi_def_cfa_offset 8
	ret
	.p2align 4,,10
	.p2align 3
.L339:
	.cfi_restore 3
	.cfi_restore 6
	.cfi_restore 12
	testq	%rax, %rax
	je	.L341
	movq	%rax, %rdi
	jmp	_ZdlPv@PLT
	.p2align 4,,10
	.p2align 3
.L341:
	rep ret
	.cfi_endproc
.LFE3967:
	.size	_ZNSt6vectorIN2ir7OperandESaIS1_EED2Ev, .-_ZNSt6vectorIN2ir7OperandESaIS1_EED2Ev
	.weak	_ZNSt6vectorIN2ir7OperandESaIS1_EED1Ev
	.set	_ZNSt6vectorIN2ir7OperandESaIS1_EED1Ev,_ZNSt6vectorIN2ir7OperandESaIS1_EED2Ev
	.section	.text._ZNSt6vectorIiSaIiEEaSERKS1_,"axG",@progbits,_ZNSt6vectorIiSaIiEEaSERKS1_,comdat
	.align 2
	.p2align 4,,15
	.weak	_ZNSt6vectorIiSaIiEEaSERKS1_
	.type	_ZNSt6vectorIiSaIiEEaSERKS1_, @function
_ZNSt6vectorIiSaIiEEaSERKS1_:
.LFB4041:
	.cfi_startproc
	pushq	%r15
	.cfi_def_cfa_offset 16
	.cfi_offset 15, -16
	pushq	%r14
	.cfi_def_cfa_offset 24
	.cfi_offset 14, -24
	pushq	%r13
	.cfi_def_cfa_offset 32
	.cfi_offset 13, -32
	pushq	%r12
	.cfi_def_cfa_offset 40
	.cfi_offset 12, -40
	pushq	%rbp
	.cfi_def_cfa_offset 48
	.cfi_offset 6, -48
	pushq	%rbx
	.cfi_def_cfa_offset 56
	.cfi_offset 3, -56
	movq	%rdi, %rbx
	subq	$8, %rsp
	.cfi_def_cfa_offset 64
	cmpq	%rdi, %rsi
	je	.L346
	movq	8(%rsi), %r15
	movq	(%rsi), %r14
	movq	%rsi, %r12
	movq	(%rdi), %r13
	movq	16(%rdi), %rcx
	movq	%r15, %rbp
	subq	%r14, %rbp
	subq	%r13, %rcx
	movq	%rbp, %rax
	sarq	$2, %rcx
	sarq	$2, %rax
	cmpq	%rax, %rcx
	jb	.L363
	movq	8(%rdi), %rdi
	movq	%rdi, %rdx
	subq	%r13, %rdx
	movq	%rdx, %rcx
	sarq	$2, %rcx
	cmpq	%rcx, %rax
	ja	.L354
	cmpq	%r14, %r15
	jne	.L355
.L362:
	addq	%r13, %rbp
.L353:
	movq	%rbp, 8(%rbx)
.L346:
	addq	$8, %rsp
	.cfi_remember_state
	.cfi_def_cfa_offset 56
	movq	%rbx, %rax
	popq	%rbx
	.cfi_def_cfa_offset 48
	popq	%rbp
	.cfi_def_cfa_offset 40
	popq	%r12
	.cfi_def_cfa_offset 32
	popq	%r13
	.cfi_def_cfa_offset 24
	popq	%r14
	.cfi_def_cfa_offset 16
	popq	%r15
	.cfi_def_cfa_offset 8
	ret
	.p2align 4,,10
	.p2align 3
.L363:
	.cfi_restore_state
	xorl	%r12d, %r12d
	testq	%rax, %rax
	je	.L349
	movabsq	$4611686018427387903, %rdx
	cmpq	%rdx, %rax
	ja	.L364
	movq	%rbp, %rdi
	call	_Znwm@PLT
	movq	(%rbx), %r13
	movq	%rax, %r12
.L349:
	cmpq	%r14, %r15
	je	.L351
	movq	%rbp, %rdx
	movq	%r14, %rsi
	movq	%r12, %rdi
	call	memmove@PLT
.L351:
	testq	%r13, %r13
	je	.L352
	movq	%r13, %rdi
	call	_ZdlPv@PLT
.L352:
	addq	%r12, %rbp
	movq	%r12, (%rbx)
	movq	%rbp, 16(%rbx)
	jmp	.L353
	.p2align 4,,10
	.p2align 3
.L354:
	leaq	(%r14,%rdx), %rsi
	cmpq	%rsi, %r14
	jne	.L365
	cmpq	%rsi, %r15
	je	.L362
.L357:
	movq	%r15, %rdx
	subq	%rsi, %rdx
	call	memmove@PLT
	addq	(%rbx), %rbp
	jmp	.L353
	.p2align 4,,10
	.p2align 3
.L355:
	movq	%rbp, %rdx
	movq	%r14, %rsi
	movq	%r13, %rdi
	call	memmove@PLT
	addq	(%rbx), %rbp
	jmp	.L353
	.p2align 4,,10
	.p2align 3
.L365:
	movq	%r13, %rdi
	movq	%r14, %rsi
	call	memmove@PLT
	movq	8(%rbx), %rdi
	movq	(%rbx), %r13
	movq	8(%r12), %r15
	movq	%rdi, %rsi
	subq	%r13, %rsi
	addq	(%r12), %rsi
	cmpq	%rsi, %r15
	je	.L362
	jmp	.L357
.L364:
	call	_ZSt17__throw_bad_allocv@PLT
	.cfi_endproc
.LFE4041:
	.size	_ZNSt6vectorIiSaIiEEaSERKS1_, .-_ZNSt6vectorIiSaIiEEaSERKS1_
	.section	.text._ZNSt6vectorIiSaIiEEC2ERKS1_,"axG",@progbits,_ZNSt6vectorIiSaIiEEC5ERKS1_,comdat
	.align 2
	.p2align 4,,15
	.weak	_ZNSt6vectorIiSaIiEEC2ERKS1_
	.type	_ZNSt6vectorIiSaIiEEC2ERKS1_, @function
_ZNSt6vectorIiSaIiEEC2ERKS1_:
.LFB4053:
	.cfi_startproc
	pushq	%r12
	.cfi_def_cfa_offset 16
	.cfi_offset 12, -16
	pushq	%rbp
	.cfi_def_cfa_offset 24
	.cfi_offset 6, -24
	xorl	%ecx, %ecx
	pushq	%rbx
	.cfi_def_cfa_offset 32
	.cfi_offset 3, -32
	movq	8(%rsi), %rbp
	movq	%rdi, %rbx
	subq	(%rsi), %rbp
	movq	%rsi, %r12
	movq	$0, (%rdi)
	movq	$0, 8(%rdi)
	movq	$0, 16(%rdi)
	movq	%rbp, %rax
	sarq	$2, %rax
	testq	%rax, %rax
	je	.L368
	movabsq	$4611686018427387903, %rdx
	cmpq	%rdx, %rax
	ja	.L373
	movq	%rbp, %rdi
	call	_Znwm@PLT
	movq	%rax, %rcx
.L368:
	addq	%rcx, %rbp
	movq	%rcx, (%rbx)
	movq	%rcx, 8(%rbx)
	movq	%rbp, 16(%rbx)
	movq	8(%r12), %rax
	movq	(%r12), %rsi
	movq	%rax, %rbp
	subq	%rsi, %rbp
	cmpq	%rsi, %rax
	je	.L371
	movq	%rcx, %rdi
	movq	%rbp, %rdx
	call	memmove@PLT
	movq	%rax, %rcx
.L371:
	addq	%rbp, %rcx
	movq	%rcx, 8(%rbx)
	popq	%rbx
	.cfi_remember_state
	.cfi_def_cfa_offset 24
	popq	%rbp
	.cfi_def_cfa_offset 16
	popq	%r12
	.cfi_def_cfa_offset 8
	ret
.L373:
	.cfi_restore_state
	call	_ZSt17__throw_bad_allocv@PLT
	.cfi_endproc
.LFE4053:
	.size	_ZNSt6vectorIiSaIiEEC2ERKS1_, .-_ZNSt6vectorIiSaIiEEC2ERKS1_
	.weak	_ZNSt6vectorIiSaIiEEC1ERKS1_
	.set	_ZNSt6vectorIiSaIiEEC1ERKS1_,_ZNSt6vectorIiSaIiEEC2ERKS1_
	.section	.text._ZStplIcSt11char_traitsIcESaIcEENSt7__cxx1112basic_stringIT_T0_T1_EERKS8_SA_,"axG",@progbits,_ZStplIcSt11char_traitsIcESaIcEENSt7__cxx1112basic_stringIT_T0_T1_EERKS8_SA_,comdat
	.p2align 4,,15
	.weak	_ZStplIcSt11char_traitsIcESaIcEENSt7__cxx1112basic_stringIT_T0_T1_EERKS8_SA_
	.type	_ZStplIcSt11char_traitsIcESaIcEENSt7__cxx1112basic_stringIT_T0_T1_EERKS8_SA_, @function
_ZStplIcSt11char_traitsIcESaIcEENSt7__cxx1112basic_stringIT_T0_T1_EERKS8_SA_:
.LFB4056:
	.cfi_startproc
	.cfi_personality 0x9b,DW.ref.__gxx_personality_v0
	.cfi_lsda 0x1b,.LLSDA4056
	pushq	%r14
	.cfi_def_cfa_offset 16
	.cfi_offset 14, -16
	leaq	16(%rdi), %r14
	pushq	%r13
	.cfi_def_cfa_offset 24
	.cfi_offset 13, -24
	pushq	%r12
	.cfi_def_cfa_offset 32
	.cfi_offset 12, -32
	pushq	%rbp
	.cfi_def_cfa_offset 40
	.cfi_offset 6, -40
	movq	%rdx, %r13
	pushq	%rbx
	.cfi_def_cfa_offset 48
	.cfi_offset 3, -48
	movq	%rdi, %rbx
	subq	$16, %rsp
	.cfi_def_cfa_offset 64
	movq	%r14, (%rdi)
	movq	(%rsi), %r12
	movq	8(%rsi), %rbp
	movq	%fs:40, %rax
	movq	%rax, 8(%rsp)
	xorl	%eax, %eax
	movq	%r12, %rax
	addq	%rbp, %rax
	je	.L375
	testq	%r12, %r12
	je	.L393
.L375:
	cmpq	$15, %rbp
	movq	%rbp, (%rsp)
	ja	.L394
	cmpq	$1, %rbp
	jne	.L378
	movzbl	(%r12), %eax
	movb	%al, 16(%rbx)
	movq	%r14, %rax
.L379:
	movq	%rbp, 8(%rbx)
	movb	$0, (%rax,%rbp)
	movq	%rbx, %rdi
	movq	8(%r13), %rdx
	movq	0(%r13), %rsi
.LEHB25:
	call	_ZNSt7__cxx1112basic_stringIcSt11char_traitsIcESaIcEE9_M_appendEPKcm@PLT
.LEHE25:
	movq	8(%rsp), %rcx
	xorq	%fs:40, %rcx
	movq	%rbx, %rax
	jne	.L395
	addq	$16, %rsp
	.cfi_remember_state
	.cfi_def_cfa_offset 48
	popq	%rbx
	.cfi_def_cfa_offset 40
	popq	%rbp
	.cfi_def_cfa_offset 32
	popq	%r12
	.cfi_def_cfa_offset 24
	popq	%r13
	.cfi_def_cfa_offset 16
	popq	%r14
	.cfi_def_cfa_offset 8
	ret
	.p2align 4,,10
	.p2align 3
.L394:
	.cfi_restore_state
	xorl	%edx, %edx
	movq	%rsp, %rsi
	movq	%rbx, %rdi
.LEHB26:
	call	_ZNSt7__cxx1112basic_stringIcSt11char_traitsIcESaIcEE9_M_createERmm@PLT
	movq	(%rsp), %rdx
	movq	%rax, (%rbx)
	movq	%rdx, 16(%rbx)
.L377:
	movq	%rbp, %rdx
	movq	%r12, %rsi
	movq	%rax, %rdi
	call	memcpy@PLT
	movq	(%rsp), %rbp
	movq	(%rbx), %rax
	jmp	.L379
	.p2align 4,,10
	.p2align 3
.L378:
	testq	%rbp, %rbp
	movq	%r14, %rax
	je	.L379
	jmp	.L377
.L393:
	leaq	.LC4(%rip), %rdi
	call	_ZSt19__throw_logic_errorPKc@PLT
.L395:
	call	__stack_chk_fail@PLT
.L384:
	movq	(%rbx), %rdi
	movq	%rax, %rbp
	cmpq	%rdi, %r14
	je	.L381
	call	_ZdlPv@PLT
.L381:
	movq	%rbp, %rdi
	call	_Unwind_Resume@PLT
.LEHE26:
	.cfi_endproc
.LFE4056:
	.section	.gcc_except_table
.LLSDA4056:
	.byte	0xff
	.byte	0xff
	.byte	0x1
	.uleb128 .LLSDACSE4056-.LLSDACSB4056
.LLSDACSB4056:
	.uleb128 .LEHB25-.LFB4056
	.uleb128 .LEHE25-.LEHB25
	.uleb128 .L384-.LFB4056
	.uleb128 0
	.uleb128 .LEHB26-.LFB4056
	.uleb128 .LEHE26-.LEHB26
	.uleb128 0
	.uleb128 0
.LLSDACSE4056:
	.section	.text._ZStplIcSt11char_traitsIcESaIcEENSt7__cxx1112basic_stringIT_T0_T1_EERKS8_SA_,"axG",@progbits,_ZStplIcSt11char_traitsIcESaIcEENSt7__cxx1112basic_stringIT_T0_T1_EERKS8_SA_,comdat
	.size	_ZStplIcSt11char_traitsIcESaIcEENSt7__cxx1112basic_stringIT_T0_T1_EERKS8_SA_, .-_ZStplIcSt11char_traitsIcESaIcEENSt7__cxx1112basic_stringIT_T0_T1_EERKS8_SA_
	.section	.rodata._ZStplIcSt11char_traitsIcESaIcEENSt7__cxx1112basic_stringIT_T0_T1_EEPKS5_RKS8_.str1.1,"aMS",@progbits,1
.LC9:
	.string	"basic_string::append"
	.section	.text._ZStplIcSt11char_traitsIcESaIcEENSt7__cxx1112basic_stringIT_T0_T1_EEPKS5_RKS8_,"axG",@progbits,_ZStplIcSt11char_traitsIcESaIcEENSt7__cxx1112basic_stringIT_T0_T1_EEPKS5_RKS8_,comdat
	.p2align 4,,15
	.weak	_ZStplIcSt11char_traitsIcESaIcEENSt7__cxx1112basic_stringIT_T0_T1_EEPKS5_RKS8_
	.type	_ZStplIcSt11char_traitsIcESaIcEENSt7__cxx1112basic_stringIT_T0_T1_EEPKS5_RKS8_, @function
_ZStplIcSt11char_traitsIcESaIcEENSt7__cxx1112basic_stringIT_T0_T1_EEPKS5_RKS8_:
.LFB4069:
	.cfi_startproc
	.cfi_personality 0x9b,DW.ref.__gxx_personality_v0
	.cfi_lsda 0x1b,.LLSDA4069
	pushq	%r14
	.cfi_def_cfa_offset 16
	.cfi_offset 14, -16
	pushq	%r13
	.cfi_def_cfa_offset 24
	.cfi_offset 13, -24
	movq	%rsi, %r13
	pushq	%r12
	.cfi_def_cfa_offset 32
	.cfi_offset 12, -32
	pushq	%rbp
	.cfi_def_cfa_offset 40
	.cfi_offset 6, -40
	movq	%rdx, %r12
	pushq	%rbx
	.cfi_def_cfa_offset 48
	.cfi_offset 3, -48
	movq	%rdi, %rbx
	movq	%rsi, %rdi
	leaq	16(%rbx), %r14
	call	strlen@PLT
	movq	%r14, (%rbx)
	movq	$0, 8(%rbx)
	movq	%rbx, %rdi
	movb	$0, 16(%rbx)
	movq	8(%r12), %rsi
	movq	%rax, %rbp
	addq	%rax, %rsi
.LEHB27:
	call	_ZNSt7__cxx1112basic_stringIcSt11char_traitsIcESaIcEE7reserveEm@PLT
	movabsq	$9223372036854775807, %rax
	subq	8(%rbx), %rax
	cmpq	%rax, %rbp
	ja	.L403
	movq	%rbp, %rdx
	movq	%r13, %rsi
	movq	%rbx, %rdi
	call	_ZNSt7__cxx1112basic_stringIcSt11char_traitsIcESaIcEE9_M_appendEPKcm@PLT
	movq	8(%r12), %rdx
	movq	(%r12), %rsi
	movq	%rbx, %rdi
	call	_ZNSt7__cxx1112basic_stringIcSt11char_traitsIcESaIcEE9_M_appendEPKcm@PLT
	movq	%rbx, %rax
	popq	%rbx
	.cfi_remember_state
	.cfi_def_cfa_offset 40
	popq	%rbp
	.cfi_def_cfa_offset 32
	popq	%r12
	.cfi_def_cfa_offset 24
	popq	%r13
	.cfi_def_cfa_offset 16
	popq	%r14
	.cfi_def_cfa_offset 8
	ret
.L403:
	.cfi_restore_state
	leaq	.LC9(%rip), %rdi
	call	_ZSt20__throw_length_errorPKc@PLT
.LEHE27:
.L400:
	movq	(%rbx), %rdi
	movq	%rax, %rbp
	cmpq	%rdi, %r14
	je	.L399
	call	_ZdlPv@PLT
.L399:
	movq	%rbp, %rdi
.LEHB28:
	call	_Unwind_Resume@PLT
.LEHE28:
	.cfi_endproc
.LFE4069:
	.section	.gcc_except_table
.LLSDA4069:
	.byte	0xff
	.byte	0xff
	.byte	0x1
	.uleb128 .LLSDACSE4069-.LLSDACSB4069
.LLSDACSB4069:
	.uleb128 .LEHB27-.LFB4069
	.uleb128 .LEHE27-.LEHB27
	.uleb128 .L400-.LFB4069
	.uleb128 0
	.uleb128 .LEHB28-.LFB4069
	.uleb128 .LEHE28-.LEHB28
	.uleb128 0
	.uleb128 0
.LLSDACSE4069:
	.section	.text._ZStplIcSt11char_traitsIcESaIcEENSt7__cxx1112basic_stringIT_T0_T1_EEPKS5_RKS8_,"axG",@progbits,_ZStplIcSt11char_traitsIcESaIcEENSt7__cxx1112basic_stringIT_T0_T1_EEPKS5_RKS8_,comdat
	.size	_ZStplIcSt11char_traitsIcESaIcEENSt7__cxx1112basic_stringIT_T0_T1_EEPKS5_RKS8_, .-_ZStplIcSt11char_traitsIcESaIcEENSt7__cxx1112basic_stringIT_T0_T1_EEPKS5_RKS8_
	.section	.rodata.str1.8
	.align 8
.LC10:
	.string	"In frontend::SymbolTable::get_ste: Unexpected id: "
	.align 8
.LC11:
	.string	"0 && \"In frontend::SymbolTable::get_ste: Unexpected id\""
	.align 8
.LC12:
	.string	"it != scope_stack[0].table.end() && \"In frontend::SymbolTable::get_ste: Invalid FuncName!\""
	.text
	.align 2
	.p2align 4,,15
	.globl	_ZNK8frontend11SymbolTable7get_steENSt7__cxx1112basic_stringIcSt11char_traitsIcESaIcEEEb
	.type	_ZNK8frontend11SymbolTable7get_steENSt7__cxx1112basic_stringIcSt11char_traitsIcESaIcEEEb, @function
_ZNK8frontend11SymbolTable7get_steENSt7__cxx1112basic_stringIcSt11char_traitsIcESaIcEEEb:
.LFB3601:
	.cfi_startproc
	.cfi_personality 0x9b,DW.ref.__gxx_personality_v0
	.cfi_lsda 0x1b,.LLSDA3601
	pushq	%r15
	.cfi_def_cfa_offset 16
	.cfi_offset 15, -16
	pushq	%r14
	.cfi_def_cfa_offset 24
	.cfi_offset 14, -24
	pushq	%r13
	.cfi_def_cfa_offset 32
	.cfi_offset 13, -32
	pushq	%r12
	.cfi_def_cfa_offset 40
	.cfi_offset 12, -40
	pushq	%rbp
	.cfi_def_cfa_offset 48
	.cfi_offset 6, -48
	pushq	%rbx
	.cfi_def_cfa_offset 56
	.cfi_offset 3, -56
	subq	$88, %rsp
	.cfi_def_cfa_offset 144
	movq	%fs:40, %rax
	movq	%rax, 72(%rsp)
	xorl	%eax, %eax
	testb	%cl, %cl
	movq	%rdx, 8(%rsp)
	movq	%rdi, 16(%rsp)
	movq	(%rsi), %rdx
	jne	.L480
	movq	8(%rsi), %rax
	subq	%rdx, %rax
	sarq	$3, %rax
	imull	$-1171354717, %eax, %eax
	subl	$1, %eax
	js	.L481
	movslq	%eax, %rsi
	leaq	(%rsi,%rsi,4), %rax
	movq	%rsi, (%rsp)
	leaq	(%rsi,%rax,2), %rax
	leaq	48(%rdx,%rax,8), %rbp
	movq	8(%rsp), %rax
	movq	8(%rax), %r15
	.p2align 4,,10
	.p2align 3
.L446:
	movq	8(%rbp), %r14
	testq	%r14, %r14
	je	.L425
	movq	8(%rsp), %rax
	movq	%rbp, %rbx
	movq	(%rax), %r12
	jmp	.L426
	.p2align 4,,10
	.p2align 3
.L431:
	movq	24(%r14), %r14
	testq	%r14, %r14
	je	.L427
.L426:
	movq	40(%r14), %r13
	movq	%r15, %rdx
	cmpq	%r15, %r13
	cmovbe	%r13, %rdx
	testq	%rdx, %rdx
	je	.L428
	movq	32(%r14), %rdi
	movq	%r12, %rsi
	call	memcmp@PLT
	testl	%eax, %eax
	jne	.L429
.L428:
	movq	%r13, %rcx
	subq	%r15, %rcx
	cmpq	$2147483647, %rcx
	jg	.L430
	cmpq	$-2147483648, %rcx
	jl	.L431
	movl	%ecx, %eax
.L429:
	testl	%eax, %eax
	js	.L431
.L430:
	movq	%r14, %rbx
	movq	16(%r14), %r14
	testq	%r14, %r14
	jne	.L426
.L427:
	cmpq	%rbp, %rbx
	je	.L425
	movq	40(%rbx), %rcx
	cmpq	%rcx, %r15
	movq	%rcx, %rdx
	cmovbe	%r15, %rdx
	testq	%rdx, %rdx
	je	.L433
	movq	32(%rbx), %rsi
	movq	%r12, %rdi
	movq	%rcx, 24(%rsp)
	call	memcmp@PLT
	testl	%eax, %eax
	movq	24(%rsp), %rcx
	jne	.L434
.L433:
	movq	%r15, %rax
	subq	%rcx, %rax
	cmpq	$2147483647, %rax
	jg	.L435
	cmpq	$-2147483648, %rax
	jl	.L425
.L434:
	testl	%eax, %eax
	js	.L425
.L435:
	movq	16(%rsp), %r15
	leaq	64(%rbx), %rsi
	movq	%r15, %rdi
.LEHB29:
	call	_ZN2ir7OperandC1ERKS0_@PLT
.LEHE29:
	movq	112(%rbx), %rbp
	subq	104(%rbx), %rbp
	movq	$0, 40(%r15)
	movq	$0, 48(%r15)
	movq	$0, 56(%r15)
	movq	%rbp, %rax
	sarq	$2, %rax
	testq	%rax, %rax
	je	.L482
	movabsq	$4611686018427387903, %rdx
	cmpq	%rdx, %rax
	ja	.L483
	movq	%rbp, %rdi
.LEHB30:
	call	_Znwm@PLT
.LEHE30:
	movq	%rax, %rcx
.L436:
	movq	16(%rsp), %rax
	addq	%rcx, %rbp
	movq	%rcx, 40(%rax)
	movq	%rcx, 48(%rax)
	movq	%rbp, 56(%rax)
	movq	112(%rbx), %rax
	movq	104(%rbx), %rsi
	movq	%rax, %rbx
	subq	%rsi, %rbx
	cmpq	%rsi, %rax
	je	.L439
.L476:
	movq	%rcx, %rdi
	movq	%rbx, %rdx
	call	memmove@PLT
	movq	%rax, %rcx
.L439:
	movq	16(%rsp), %rax
	addq	%rbx, %rcx
	movq	72(%rsp), %rsi
	xorq	%fs:40, %rsi
	movq	%rcx, 48(%rax)
	jne	.L484
	addq	$88, %rsp
	.cfi_remember_state
	.cfi_def_cfa_offset 56
	popq	%rbx
	.cfi_def_cfa_offset 48
	popq	%rbp
	.cfi_def_cfa_offset 40
	popq	%r12
	.cfi_def_cfa_offset 32
	popq	%r13
	.cfi_def_cfa_offset 24
	popq	%r14
	.cfi_def_cfa_offset 16
	popq	%r15
	.cfi_def_cfa_offset 8
	ret
	.p2align 4,,10
	.p2align 3
.L425:
	.cfi_restore_state
	subq	$1, (%rsp)
	subq	$88, %rbp
	movq	(%rsp), %rax
	testl	%eax, %eax
	jns	.L446
	movq	8(%rsp), %r14
.L424:
	movq	(%r14), %rsi
	leaq	_ZSt4cout(%rip), %rdi
	movq	%r15, %rdx
	leaq	32(%rsp), %rbx
.LEHB31:
	call	_ZSt16__ostream_insertIcSt11char_traitsIcEERSt13basic_ostreamIT_T0_ES6_PKS3_l@PLT
	movq	%rax, %rdi
	call	_ZSt4endlIcSt11char_traitsIcEERSt13basic_ostreamIT_T0_ES6_@PLT
	leaq	.LC10(%rip), %rsi
	movq	%r14, %rdx
	movq	%rbx, %rdi
	call	_ZStplIcSt11char_traitsIcESaIcEENSt7__cxx1112basic_stringIT_T0_T1_EEPKS5_RKS8_
.LEHE31:
	movq	40(%rsp), %rdx
	movq	32(%rsp), %rsi
	leaq	_ZSt4cout(%rip), %rdi
.LEHB32:
	call	_ZSt16__ostream_insertIcSt11char_traitsIcEERSt13basic_ostreamIT_T0_ES6_PKS3_l@PLT
	movq	%rax, %rdi
	call	_ZSt4endlIcSt11char_traitsIcEERSt13basic_ostreamIT_T0_ES6_@PLT
.LEHE32:
	leaq	_ZZNK8frontend11SymbolTable7get_steENSt7__cxx1112basic_stringIcSt11char_traitsIcESaIcEEEbE19__PRETTY_FUNCTION__(%rip), %rcx
	leaq	.LC0(%rip), %rsi
	leaq	.LC11(%rip), %rdi
	movl	$179, %edx
	call	__assert_fail@PLT
	.p2align 4,,10
	.p2align 3
.L480:
	movq	56(%rdx), %r12
	leaq	48(%rdx), %r14
	testq	%r12, %r12
	je	.L406
	movq	8(%rsp), %rax
	movq	%r14, %rbp
	movq	8(%rax), %r15
	movq	(%rax), %r13
	jmp	.L407
	.p2align 4,,10
	.p2align 3
.L412:
	movq	24(%r12), %r12
	testq	%r12, %r12
	je	.L408
.L407:
	movq	40(%r12), %rbx
	movq	%r15, %rdx
	cmpq	%r15, %rbx
	cmovbe	%rbx, %rdx
	testq	%rdx, %rdx
	je	.L409
	movq	32(%r12), %rdi
	movq	%r13, %rsi
	call	memcmp@PLT
	testl	%eax, %eax
	jne	.L410
.L409:
	subq	%r15, %rbx
	cmpq	$2147483647, %rbx
	jg	.L411
	cmpq	$-2147483648, %rbx
	jl	.L412
	movl	%ebx, %eax
.L410:
	testl	%eax, %eax
	js	.L412
.L411:
	movq	%r12, %rbp
	movq	16(%r12), %r12
	testq	%r12, %r12
	jne	.L407
.L408:
	cmpq	%rbp, %r14
	je	.L406
	movq	40(%rbp), %rbx
	cmpq	%rbx, %r15
	movq	%rbx, %rdx
	cmovbe	%r15, %rdx
	testq	%rdx, %rdx
	jne	.L485
.L414:
	movq	%r15, %r8
	subq	%rbx, %r8
	cmpq	$2147483647, %r8
	jg	.L416
	cmpq	$-2147483648, %r8
	jl	.L406
	movl	%r8d, %eax
.L415:
	testl	%eax, %eax
	jns	.L416
.L406:
	leaq	_ZZNK8frontend11SymbolTable7get_steENSt7__cxx1112basic_stringIcSt11char_traitsIcESaIcEEEbE19__PRETTY_FUNCTION__(%rip), %rcx
	leaq	.LC0(%rip), %rsi
	leaq	.LC12(%rip), %rdi
	movl	$167, %edx
	call	__assert_fail@PLT
.L485:
	movq	32(%rbp), %rsi
	movq	%r13, %rdi
	call	memcmp@PLT
	testl	%eax, %eax
	je	.L414
	jmp	.L415
.L416:
	movq	16(%rsp), %r15
	leaq	64(%rbp), %rsi
	movq	%r15, %rdi
.LEHB33:
	call	_ZN2ir7OperandC1ERKS0_@PLT
.LEHE33:
	movq	112(%rbp), %rbx
	subq	104(%rbp), %rbx
	movq	$0, 40(%r15)
	movq	$0, 48(%r15)
	movq	$0, 56(%r15)
	movq	%rbx, %rax
	sarq	$2, %rax
	testq	%rax, %rax
	je	.L486
	movabsq	$4611686018427387903, %rdx
	cmpq	%rdx, %rax
	ja	.L487
	movq	%rbx, %rdi
.LEHB34:
	call	_Znwm@PLT
.LEHE34:
	movq	%rax, %rcx
.L417:
	movq	16(%rsp), %rax
	addq	%rcx, %rbx
	movq	%rbx, 56(%rax)
	movq	%rcx, 40(%rax)
	movq	%rcx, 48(%rax)
	movq	112(%rbp), %rax
	movq	104(%rbp), %rsi
	movq	%rax, %rbx
	subq	%rsi, %rbx
	cmpq	%rsi, %rax
	jne	.L476
	jmp	.L439
.L482:
	xorl	%ecx, %ecx
	jmp	.L436
.L486:
	xorl	%ecx, %ecx
	jmp	.L417
.L484:
	call	__stack_chk_fail@PLT
.L452:
.L479:
	movq	%rax, %rbx
	movq	16(%rsp), %rax
	movq	(%rax), %rdi
	leaq	16(%rax), %r14
	cmpq	%r14, %rdi
	je	.L441
	call	_ZdlPv@PLT
.L441:
	movq	%rbx, %rdi
.LEHB35:
	call	_Unwind_Resume@PLT
.LEHE35:
.L481:
	movq	8(%rsp), %rax
	movq	8(%rax), %r15
	movq	%rax, %r14
	jmp	.L424
.L483:
.LEHB36:
	call	_ZSt17__throw_bad_allocv@PLT
.LEHE36:
.L451:
	jmp	.L479
.L487:
.LEHB37:
	call	_ZSt17__throw_bad_allocv@PLT
.LEHE37:
.L450:
	movq	32(%rsp), %rdi
	addq	$16, %rbx
	movq	%rax, %rbp
	cmpq	%rbx, %rdi
	je	.L443
	call	_ZdlPv@PLT
.L443:
	movq	%rbp, %rdi
.LEHB38:
	call	_Unwind_Resume@PLT
.LEHE38:
	.cfi_endproc
.LFE3601:
	.section	.gcc_except_table
.LLSDA3601:
	.byte	0xff
	.byte	0xff
	.byte	0x1
	.uleb128 .LLSDACSE3601-.LLSDACSB3601
.LLSDACSB3601:
	.uleb128 .LEHB29-.LFB3601
	.uleb128 .LEHE29-.LEHB29
	.uleb128 0
	.uleb128 0
	.uleb128 .LEHB30-.LFB3601
	.uleb128 .LEHE30-.LEHB30
	.uleb128 .L452-.LFB3601
	.uleb128 0
	.uleb128 .LEHB31-.LFB3601
	.uleb128 .LEHE31-.LEHB31
	.uleb128 0
	.uleb128 0
	.uleb128 .LEHB32-.LFB3601
	.uleb128 .LEHE32-.LEHB32
	.uleb128 .L450-.LFB3601
	.uleb128 0
	.uleb128 .LEHB33-.LFB3601
	.uleb128 .LEHE33-.LEHB33
	.uleb128 0
	.uleb128 0
	.uleb128 .LEHB34-.LFB3601
	.uleb128 .LEHE34-.LEHB34
	.uleb128 .L451-.LFB3601
	.uleb128 0
	.uleb128 .LEHB35-.LFB3601
	.uleb128 .LEHE35-.LEHB35
	.uleb128 0
	.uleb128 0
	.uleb128 .LEHB36-.LFB3601
	.uleb128 .LEHE36-.LEHB36
	.uleb128 .L452-.LFB3601
	.uleb128 0
	.uleb128 .LEHB37-.LFB3601
	.uleb128 .LEHE37-.LEHB37
	.uleb128 .L451-.LFB3601
	.uleb128 0
	.uleb128 .LEHB38-.LFB3601
	.uleb128 .LEHE38-.LEHB38
	.uleb128 0
	.uleb128 0
.LLSDACSE3601:
	.text
	.size	_ZNK8frontend11SymbolTable7get_steENSt7__cxx1112basic_stringIcSt11char_traitsIcESaIcEEEb, .-_ZNK8frontend11SymbolTable7get_steENSt7__cxx1112basic_stringIcSt11char_traitsIcESaIcEEEb
	.align 2
	.p2align 4,,15
	.globl	_ZNK8frontend11SymbolTable11get_operandENSt7__cxx1112basic_stringIcSt11char_traitsIcESaIcEEEb
	.type	_ZNK8frontend11SymbolTable11get_operandENSt7__cxx1112basic_stringIcSt11char_traitsIcESaIcEEEb, @function
_ZNK8frontend11SymbolTable11get_operandENSt7__cxx1112basic_stringIcSt11char_traitsIcESaIcEEEb:
.LFB3595:
	.cfi_startproc
	.cfi_personality 0x9b,DW.ref.__gxx_personality_v0
	.cfi_lsda 0x1b,.LLSDA3595
	pushq	%r15
	.cfi_def_cfa_offset 16
	.cfi_offset 15, -16
	pushq	%r14
	.cfi_def_cfa_offset 24
	.cfi_offset 14, -24
	movq	%rsi, %r15
	pushq	%r13
	.cfi_def_cfa_offset 32
	.cfi_offset 13, -32
	pushq	%r12
	.cfi_def_cfa_offset 40
	.cfi_offset 12, -40
	movq	%rdi, %r13
	pushq	%rbp
	.cfi_def_cfa_offset 48
	.cfi_offset 6, -48
	pushq	%rbx
	.cfi_def_cfa_offset 56
	.cfi_offset 3, -56
	movzbl	%cl, %r14d
	subq	$136, %rsp
	.cfi_def_cfa_offset 192
	movq	(%rdx), %r12
	movq	8(%rdx), %rbx
	leaq	16(%rsp), %rbp
	movq	%fs:40, %rax
	movq	%rax, 120(%rsp)
	xorl	%eax, %eax
	leaq	16(%rbp), %rax
	movq	%rax, 16(%rsp)
	movq	%r12, %rax
	addq	%rbx, %rax
	je	.L489
	testq	%r12, %r12
	je	.L514
.L489:
	cmpq	$15, %rbx
	movq	%rbx, 8(%rsp)
	ja	.L515
	cmpq	$1, %rbx
	jne	.L492
	movzbl	(%r12), %eax
	movb	%al, 32(%rsp)
	leaq	16(%rbp), %rax
.L493:
	movq	%rbx, 24(%rsp)
	movb	$0, (%rax,%rbx)
	leaq	48(%rsp), %rbx
	movl	%r14d, %ecx
	movq	%rbp, %rdx
	movq	%r15, %rsi
	movq	%rbx, %rdi
.LEHB39:
	call	_ZNK8frontend11SymbolTable7get_steENSt7__cxx1112basic_stringIcSt11char_traitsIcESaIcEEEb
.LEHE39:
	movq	16(%rsp), %rdi
	addq	$16, %rbp
	cmpq	%rbp, %rdi
	je	.L494
	call	_ZdlPv@PLT
.L494:
	movq	%rbx, %rsi
	movq	%r13, %rdi
.LEHB40:
	call	_ZN2ir7OperandC1ERKS0_@PLT
.LEHE40:
	movq	88(%rsp), %rdi
	testq	%rdi, %rdi
	je	.L495
	call	_ZdlPv@PLT
.L495:
	movq	48(%rsp), %rdi
	addq	$16, %rbx
	cmpq	%rbx, %rdi
	je	.L488
	call	_ZdlPv@PLT
.L488:
	movq	120(%rsp), %rcx
	xorq	%fs:40, %rcx
	movq	%r13, %rax
	jne	.L516
	addq	$136, %rsp
	.cfi_remember_state
	.cfi_def_cfa_offset 56
	popq	%rbx
	.cfi_def_cfa_offset 48
	popq	%rbp
	.cfi_def_cfa_offset 40
	popq	%r12
	.cfi_def_cfa_offset 32
	popq	%r13
	.cfi_def_cfa_offset 24
	popq	%r14
	.cfi_def_cfa_offset 16
	popq	%r15
	.cfi_def_cfa_offset 8
	ret
	.p2align 4,,10
	.p2align 3
.L515:
	.cfi_restore_state
	leaq	8(%rsp), %rsi
	xorl	%edx, %edx
	movq	%rbp, %rdi
.LEHB41:
	call	_ZNSt7__cxx1112basic_stringIcSt11char_traitsIcESaIcEE9_M_createERmm@PLT
	movq	8(%rsp), %rdx
	movq	%rax, 16(%rsp)
	movq	%rdx, 32(%rsp)
.L491:
	movq	%rbx, %rdx
	movq	%r12, %rsi
	movq	%rax, %rdi
	call	memcpy@PLT
	movq	8(%rsp), %rbx
	movq	16(%rsp), %rax
	jmp	.L493
	.p2align 4,,10
	.p2align 3
.L492:
	testq	%rbx, %rbx
	leaq	16(%rbp), %rax
	je	.L493
	jmp	.L491
.L514:
	leaq	.LC4(%rip), %rdi
	call	_ZSt19__throw_logic_errorPKc@PLT
.L516:
	call	__stack_chk_fail@PLT
.L503:
	movq	%rax, %rbp
	movq	%rbx, %rdi
	call	_ZN8frontend3STED1Ev
	movq	%rbp, %rdi
	call	_Unwind_Resume@PLT
.L502:
	movq	16(%rsp), %rdi
	addq	$16, %rbp
	movq	%rax, %rbx
	cmpq	%rbp, %rdi
	je	.L498
	call	_ZdlPv@PLT
.L498:
	movq	%rbx, %rdi
	call	_Unwind_Resume@PLT
.LEHE41:
	.cfi_endproc
.LFE3595:
	.section	.gcc_except_table
.LLSDA3595:
	.byte	0xff
	.byte	0xff
	.byte	0x1
	.uleb128 .LLSDACSE3595-.LLSDACSB3595
.LLSDACSB3595:
	.uleb128 .LEHB39-.LFB3595
	.uleb128 .LEHE39-.LEHB39
	.uleb128 .L502-.LFB3595
	.uleb128 0
	.uleb128 .LEHB40-.LFB3595
	.uleb128 .LEHE40-.LEHB40
	.uleb128 .L503-.LFB3595
	.uleb128 0
	.uleb128 .LEHB41-.LFB3595
	.uleb128 .LEHE41-.LEHB41
	.uleb128 0
	.uleb128 0
.LLSDACSE3595:
	.text
	.size	_ZNK8frontend11SymbolTable11get_operandENSt7__cxx1112basic_stringIcSt11char_traitsIcESaIcEEEb, .-_ZNK8frontend11SymbolTable11get_operandENSt7__cxx1112basic_stringIcSt11char_traitsIcESaIcEEEb
	.align 2
	.p2align 4,,15
	.globl	_ZNK8frontend11SymbolTable16get_operand_nameENSt7__cxx1112basic_stringIcSt11char_traitsIcESaIcEEEb
	.type	_ZNK8frontend11SymbolTable16get_operand_nameENSt7__cxx1112basic_stringIcSt11char_traitsIcESaIcEEEb, @function
_ZNK8frontend11SymbolTable16get_operand_nameENSt7__cxx1112basic_stringIcSt11char_traitsIcESaIcEEEb:
.LFB3599:
	.cfi_startproc
	.cfi_personality 0x9b,DW.ref.__gxx_personality_v0
	.cfi_lsda 0x1b,.LLSDA3599
	pushq	%r15
	.cfi_def_cfa_offset 16
	.cfi_offset 15, -16
	pushq	%r14
	.cfi_def_cfa_offset 24
	.cfi_offset 14, -24
	movq	%rsi, %r15
	pushq	%r13
	.cfi_def_cfa_offset 32
	.cfi_offset 13, -32
	pushq	%r12
	.cfi_def_cfa_offset 40
	.cfi_offset 12, -40
	movzbl	%cl, %r14d
	pushq	%rbp
	.cfi_def_cfa_offset 48
	.cfi_offset 6, -48
	pushq	%rbx
	.cfi_def_cfa_offset 56
	.cfi_offset 3, -56
	movq	%rdi, %r12
	subq	$136, %rsp
	.cfi_def_cfa_offset 192
	movq	(%rdx), %r13
	movq	8(%rdx), %rbx
	leaq	16(%rsp), %rbp
	movq	%fs:40, %rax
	movq	%rax, 120(%rsp)
	xorl	%eax, %eax
	leaq	16(%rbp), %rax
	movq	%rax, 16(%rsp)
	movq	%r13, %rax
	addq	%rbx, %rax
	je	.L518
	testq	%r13, %r13
	je	.L558
.L518:
	cmpq	$15, %rbx
	movq	%rbx, 8(%rsp)
	ja	.L559
	cmpq	$1, %rbx
	jne	.L521
	movzbl	0(%r13), %eax
	movb	%al, 32(%rsp)
	leaq	16(%rbp), %rax
.L522:
	leaq	48(%rsp), %r13
	movq	%rbx, 24(%rsp)
	movl	%r14d, %ecx
	movb	$0, (%rax,%rbx)
	movq	%rbp, %rdx
	movq	%r15, %rsi
	movq	%r13, %rdi
.LEHB42:
	call	_ZNK8frontend11SymbolTable7get_steENSt7__cxx1112basic_stringIcSt11char_traitsIcESaIcEEEb
.LEHE42:
	movq	16(%rsp), %rdi
	addq	$16, %rbp
	cmpq	%rbp, %rdi
	je	.L523
	call	_ZdlPv@PLT
.L523:
	movq	48(%rsp), %rbp
	movq	56(%rsp), %rbx
	leaq	16(%r12), %rax
	movq	%rax, (%r12)
	movq	%rbp, %rcx
	addq	%rbx, %rcx
	je	.L524
	testq	%rbp, %rbp
	je	.L560
.L524:
	cmpq	$15, %rbx
	movq	%rbx, 8(%rsp)
	ja	.L561
	cmpq	$1, %rbx
	jne	.L527
	movzbl	0(%rbp), %edx
	movb	%dl, 16(%r12)
.L528:
	movq	%rbx, 8(%r12)
	movb	$0, (%rax,%rbx)
	movq	88(%rsp), %rdi
	testq	%rdi, %rdi
	je	.L529
	call	_ZdlPv@PLT
.L529:
	movq	48(%rsp), %rdi
	addq	$16, %r13
	cmpq	%r13, %rdi
	je	.L517
	call	_ZdlPv@PLT
.L517:
	movq	120(%rsp), %rsi
	xorq	%fs:40, %rsi
	movq	%r12, %rax
	jne	.L562
	addq	$136, %rsp
	.cfi_remember_state
	.cfi_def_cfa_offset 56
	popq	%rbx
	.cfi_def_cfa_offset 48
	popq	%rbp
	.cfi_def_cfa_offset 40
	popq	%r12
	.cfi_def_cfa_offset 32
	popq	%r13
	.cfi_def_cfa_offset 24
	popq	%r14
	.cfi_def_cfa_offset 16
	popq	%r15
	.cfi_def_cfa_offset 8
	ret
	.p2align 4,,10
	.p2align 3
.L559:
	.cfi_restore_state
	leaq	8(%rsp), %rsi
	xorl	%edx, %edx
	movq	%rbp, %rdi
.LEHB43:
	call	_ZNSt7__cxx1112basic_stringIcSt11char_traitsIcESaIcEE9_M_createERmm@PLT
.LEHE43:
	movq	8(%rsp), %rdx
	movq	%rax, 16(%rsp)
	movq	%rdx, 32(%rsp)
.L520:
	movq	%rbx, %rdx
	movq	%r13, %rsi
	movq	%rax, %rdi
	call	memcpy@PLT
	movq	8(%rsp), %rbx
	movq	16(%rsp), %rax
	jmp	.L522
	.p2align 4,,10
	.p2align 3
.L561:
	leaq	8(%rsp), %rsi
	xorl	%edx, %edx
	movq	%r12, %rdi
.LEHB44:
	call	_ZNSt7__cxx1112basic_stringIcSt11char_traitsIcESaIcEE9_M_createERmm@PLT
.LEHE44:
	movq	8(%rsp), %rdx
	movq	%rax, (%r12)
	movq	%rdx, 16(%r12)
.L526:
	movq	%rbx, %rdx
	movq	%rbp, %rsi
	movq	%rax, %rdi
	call	memcpy@PLT
	movq	8(%rsp), %rbx
	movq	(%r12), %rax
	jmp	.L528
	.p2align 4,,10
	.p2align 3
.L521:
	testq	%rbx, %rbx
	leaq	16(%rbp), %rax
	je	.L522
	jmp	.L520
	.p2align 4,,10
	.p2align 3
.L527:
	testq	%rbx, %rbx
	je	.L528
	jmp	.L526
.L558:
	leaq	.LC4(%rip), %rdi
.LEHB45:
	call	_ZSt19__throw_logic_errorPKc@PLT
.LEHE45:
.L562:
	call	__stack_chk_fail@PLT
.L560:
	leaq	.LC4(%rip), %rdi
.LEHB46:
	call	_ZSt19__throw_logic_errorPKc@PLT
.LEHE46:
.L537:
	movq	%r13, %rdi
	movq	%rax, %rbx
	call	_ZN8frontend3STED1Ev
.L557:
	movq	%rbx, %rdi
.LEHB47:
	call	_Unwind_Resume@PLT
.LEHE47:
.L536:
	movq	16(%rsp), %rdi
	addq	$16, %rbp
	movq	%rax, %rbx
	cmpq	%rbp, %rdi
	je	.L557
	call	_ZdlPv@PLT
	jmp	.L557
	.cfi_endproc
.LFE3599:
	.section	.gcc_except_table
.LLSDA3599:
	.byte	0xff
	.byte	0xff
	.byte	0x1
	.uleb128 .LLSDACSE3599-.LLSDACSB3599
.LLSDACSB3599:
	.uleb128 .LEHB42-.LFB3599
	.uleb128 .LEHE42-.LEHB42
	.uleb128 .L536-.LFB3599
	.uleb128 0
	.uleb128 .LEHB43-.LFB3599
	.uleb128 .LEHE43-.LEHB43
	.uleb128 0
	.uleb128 0
	.uleb128 .LEHB44-.LFB3599
	.uleb128 .LEHE44-.LEHB44
	.uleb128 .L537-.LFB3599
	.uleb128 0
	.uleb128 .LEHB45-.LFB3599
	.uleb128 .LEHE45-.LEHB45
	.uleb128 0
	.uleb128 0
	.uleb128 .LEHB46-.LFB3599
	.uleb128 .LEHE46-.LEHB46
	.uleb128 .L537-.LFB3599
	.uleb128 0
	.uleb128 .LEHB47-.LFB3599
	.uleb128 .LEHE47-.LEHB47
	.uleb128 0
	.uleb128 0
.LLSDACSE3599:
	.text
	.size	_ZNK8frontend11SymbolTable16get_operand_nameENSt7__cxx1112basic_stringIcSt11char_traitsIcESaIcEEEb, .-_ZNK8frontend11SymbolTable16get_operand_nameENSt7__cxx1112basic_stringIcSt11char_traitsIcESaIcEEEb
	.align 2
	.p2align 4,,15
	.globl	_ZNK8frontend11SymbolTable16get_operand_typeENSt7__cxx1112basic_stringIcSt11char_traitsIcESaIcEEEb
	.type	_ZNK8frontend11SymbolTable16get_operand_typeENSt7__cxx1112basic_stringIcSt11char_traitsIcESaIcEEEb, @function
_ZNK8frontend11SymbolTable16get_operand_typeENSt7__cxx1112basic_stringIcSt11char_traitsIcESaIcEEEb:
.LFB3600:
	.cfi_startproc
	.cfi_personality 0x9b,DW.ref.__gxx_personality_v0
	.cfi_lsda 0x1b,.LLSDA3600
	pushq	%r14
	.cfi_def_cfa_offset 16
	.cfi_offset 14, -16
	pushq	%r13
	.cfi_def_cfa_offset 24
	.cfi_offset 13, -24
	movq	%rdi, %r14
	pushq	%r12
	.cfi_def_cfa_offset 32
	.cfi_offset 12, -32
	pushq	%rbp
	.cfi_def_cfa_offset 40
	.cfi_offset 6, -40
	movzbl	%dl, %r13d
	pushq	%rbx
	.cfi_def_cfa_offset 48
	.cfi_offset 3, -48
	addq	$-128, %rsp
	.cfi_def_cfa_offset 176
	movq	(%rsi), %r12
	movq	8(%rsi), %rbx
	leaq	16(%rsp), %rbp
	movq	%fs:40, %rax
	movq	%rax, 120(%rsp)
	xorl	%eax, %eax
	leaq	16(%rbp), %rax
	movq	%rax, 16(%rsp)
	movq	%r12, %rax
	addq	%rbx, %rax
	je	.L564
	testq	%r12, %r12
	je	.L587
.L564:
	cmpq	$15, %rbx
	movq	%rbx, 8(%rsp)
	ja	.L588
	cmpq	$1, %rbx
	jne	.L567
	movzbl	(%r12), %eax
	movb	%al, 32(%rsp)
	leaq	16(%rbp), %rax
.L568:
	movq	%rbx, 24(%rsp)
	movb	$0, (%rax,%rbx)
	leaq	48(%rsp), %rbx
	movl	%r13d, %ecx
	movq	%rbp, %rdx
	movq	%r14, %rsi
	movq	%rbx, %rdi
.LEHB48:
	call	_ZNK8frontend11SymbolTable7get_steENSt7__cxx1112basic_stringIcSt11char_traitsIcESaIcEEEb
.LEHE48:
	movq	16(%rsp), %rdi
	addq	$16, %rbp
	cmpq	%rbp, %rdi
	je	.L569
	call	_ZdlPv@PLT
.L569:
	movq	88(%rsp), %rdi
	movl	80(%rsp), %ebp
	testq	%rdi, %rdi
	je	.L570
	call	_ZdlPv@PLT
.L570:
	movq	48(%rsp), %rdi
	addq	$16, %rbx
	cmpq	%rbx, %rdi
	je	.L563
	call	_ZdlPv@PLT
.L563:
	movq	120(%rsp), %rcx
	xorq	%fs:40, %rcx
	movl	%ebp, %eax
	jne	.L589
	subq	$-128, %rsp
	.cfi_remember_state
	.cfi_def_cfa_offset 48
	popq	%rbx
	.cfi_def_cfa_offset 40
	popq	%rbp
	.cfi_def_cfa_offset 32
	popq	%r12
	.cfi_def_cfa_offset 24
	popq	%r13
	.cfi_def_cfa_offset 16
	popq	%r14
	.cfi_def_cfa_offset 8
	ret
	.p2align 4,,10
	.p2align 3
.L588:
	.cfi_restore_state
	leaq	8(%rsp), %rsi
	xorl	%edx, %edx
	movq	%rbp, %rdi
.LEHB49:
	call	_ZNSt7__cxx1112basic_stringIcSt11char_traitsIcESaIcEE9_M_createERmm@PLT
	movq	8(%rsp), %rdx
	movq	%rax, 16(%rsp)
	movq	%rdx, 32(%rsp)
.L566:
	movq	%rbx, %rdx
	movq	%r12, %rsi
	movq	%rax, %rdi
	call	memcpy@PLT
	movq	8(%rsp), %rbx
	movq	16(%rsp), %rax
	jmp	.L568
	.p2align 4,,10
	.p2align 3
.L567:
	testq	%rbx, %rbx
	leaq	16(%rbp), %rax
	je	.L568
	jmp	.L566
.L587:
	leaq	.LC4(%rip), %rdi
	call	_ZSt19__throw_logic_errorPKc@PLT
.L589:
	call	__stack_chk_fail@PLT
.L576:
	movq	16(%rsp), %rdi
	addq	$16, %rbp
	movq	%rax, %rbx
	cmpq	%rbp, %rdi
	je	.L573
	call	_ZdlPv@PLT
.L573:
	movq	%rbx, %rdi
	call	_Unwind_Resume@PLT
.LEHE49:
	.cfi_endproc
.LFE3600:
	.section	.gcc_except_table
.LLSDA3600:
	.byte	0xff
	.byte	0xff
	.byte	0x1
	.uleb128 .LLSDACSE3600-.LLSDACSB3600
.LLSDACSB3600:
	.uleb128 .LEHB48-.LFB3600
	.uleb128 .LEHE48-.LEHB48
	.uleb128 .L576-.LFB3600
	.uleb128 0
	.uleb128 .LEHB49-.LFB3600
	.uleb128 .LEHE49-.LEHB49
	.uleb128 0
	.uleb128 0
.LLSDACSE3600:
	.text
	.size	_ZNK8frontend11SymbolTable16get_operand_typeENSt7__cxx1112basic_stringIcSt11char_traitsIcESaIcEEEb, .-_ZNK8frontend11SymbolTable16get_operand_typeENSt7__cxx1112basic_stringIcSt11char_traitsIcESaIcEEEb
	.section	.text._ZNSt6vectorIPN2ir11InstructionESaIS2_EE9push_backERKS2_,"axG",@progbits,_ZNSt6vectorIPN2ir11InstructionESaIS2_EE9push_backERKS2_,comdat
	.align 2
	.p2align 4,,15
	.weak	_ZNSt6vectorIPN2ir11InstructionESaIS2_EE9push_backERKS2_
	.type	_ZNSt6vectorIPN2ir11InstructionESaIS2_EE9push_backERKS2_, @function
_ZNSt6vectorIPN2ir11InstructionESaIS2_EE9push_backERKS2_:
.LFB4139:
	.cfi_startproc
	pushq	%r15
	.cfi_def_cfa_offset 16
	.cfi_offset 15, -16
	pushq	%r14
	.cfi_def_cfa_offset 24
	.cfi_offset 14, -24
	pushq	%r13
	.cfi_def_cfa_offset 32
	.cfi_offset 13, -32
	pushq	%r12
	.cfi_def_cfa_offset 40
	.cfi_offset 12, -40
	pushq	%rbp
	.cfi_def_cfa_offset 48
	.cfi_offset 6, -48
	pushq	%rbx
	.cfi_def_cfa_offset 56
	.cfi_offset 3, -56
	subq	$8, %rsp
	.cfi_def_cfa_offset 64
	movq	8(%rdi), %rbx
	cmpq	16(%rdi), %rbx
	je	.L591
	testq	%rbx, %rbx
	je	.L592
	movq	(%rsi), %rax
	movq	%rax, (%rbx)
.L592:
	addq	$8, %rbx
	movq	%rbx, 8(%rdi)
	addq	$8, %rsp
	.cfi_remember_state
	.cfi_def_cfa_offset 56
	popq	%rbx
	.cfi_def_cfa_offset 48
	popq	%rbp
	.cfi_def_cfa_offset 40
	popq	%r12
	.cfi_def_cfa_offset 32
	popq	%r13
	.cfi_def_cfa_offset 24
	popq	%r14
	.cfi_def_cfa_offset 16
	popq	%r15
	.cfi_def_cfa_offset 8
	ret
	.p2align 4,,10
	.p2align 3
.L591:
	.cfi_restore_state
	movq	%rbx, %r14
	subq	(%rdi), %r14
	movq	%rsi, %r12
	movq	%rdi, %rbp
	movq	%r14, %rax
	sarq	$3, %rax
	testq	%rax, %rax
	je	.L600
	leaq	(%rax,%rax), %rdx
	movq	$-8, %r15
	cmpq	%rdx, %rax
	jbe	.L615
.L594:
	movq	%r15, %rdi
	call	_Znwm@PLT
	movq	%rax, %r13
.L595:
	addq	%r13, %r14
	je	.L596
	movq	(%r12), %rax
	movq	%rax, (%r14)
.L596:
	movq	0(%rbp), %r12
	movq	%rbx, %r14
	subq	%r12, %r14
	cmpq	%rbx, %r12
	je	.L597
	movq	%r14, %rdx
	movq	%r12, %rsi
	movq	%r13, %rdi
	call	memmove@PLT
.L597:
	movq	8(%rbp), %rax
	leaq	8(%r13,%r14), %rcx
	movq	%rax, %r14
	subq	%rbx, %r14
	cmpq	%rbx, %rax
	je	.L598
	movq	%rcx, %rdi
	movq	%r14, %rdx
	movq	%rbx, %rsi
	call	memmove@PLT
	movq	%rax, %rcx
.L598:
	addq	%rcx, %r14
	testq	%r12, %r12
	je	.L599
	movq	%r12, %rdi
	call	_ZdlPv@PLT
.L599:
	movq	%r13, 0(%rbp)
	addq	%r15, %r13
	movq	%r14, 8(%rbp)
	movq	%r13, 16(%rbp)
	addq	$8, %rsp
	.cfi_remember_state
	.cfi_def_cfa_offset 56
	popq	%rbx
	.cfi_def_cfa_offset 48
	popq	%rbp
	.cfi_def_cfa_offset 40
	popq	%r12
	.cfi_def_cfa_offset 32
	popq	%r13
	.cfi_def_cfa_offset 24
	popq	%r14
	.cfi_def_cfa_offset 16
	popq	%r15
	.cfi_def_cfa_offset 8
	ret
	.p2align 4,,10
	.p2align 3
.L600:
	.cfi_restore_state
	movl	$8, %r15d
	jmp	.L594
	.p2align 4,,10
	.p2align 3
.L615:
	movabsq	$2305843009213693951, %rcx
	cmpq	%rcx, %rdx
	ja	.L594
	xorl	%r15d, %r15d
	xorl	%r13d, %r13d
	testq	%rdx, %rdx
	je	.L595
	salq	$4, %rax
	movq	%rax, %r15
	jmp	.L594
	.cfi_endproc
.LFE4139:
	.size	_ZNSt6vectorIPN2ir11InstructionESaIS2_EE9push_backERKS2_, .-_ZNSt6vectorIPN2ir11InstructionESaIS2_EE9push_backERKS2_
	.section	.text._ZNSt6vectorIPN2ir11InstructionESaIS2_EEaSERKS4_,"axG",@progbits,_ZNSt6vectorIPN2ir11InstructionESaIS2_EEaSERKS4_,comdat
	.align 2
	.p2align 4,,15
	.weak	_ZNSt6vectorIPN2ir11InstructionESaIS2_EEaSERKS4_
	.type	_ZNSt6vectorIPN2ir11InstructionESaIS2_EEaSERKS4_, @function
_ZNSt6vectorIPN2ir11InstructionESaIS2_EEaSERKS4_:
.LFB4148:
	.cfi_startproc
	pushq	%r15
	.cfi_def_cfa_offset 16
	.cfi_offset 15, -16
	pushq	%r14
	.cfi_def_cfa_offset 24
	.cfi_offset 14, -24
	pushq	%r13
	.cfi_def_cfa_offset 32
	.cfi_offset 13, -32
	pushq	%r12
	.cfi_def_cfa_offset 40
	.cfi_offset 12, -40
	pushq	%rbp
	.cfi_def_cfa_offset 48
	.cfi_offset 6, -48
	pushq	%rbx
	.cfi_def_cfa_offset 56
	.cfi_offset 3, -56
	movq	%rdi, %rbx
	subq	$8, %rsp
	.cfi_def_cfa_offset 64
	cmpq	%rdi, %rsi
	je	.L617
	movq	8(%rsi), %r15
	movq	(%rsi), %r14
	movq	%rsi, %r12
	movq	(%rdi), %r13
	movq	16(%rdi), %rcx
	movq	%r15, %rbp
	subq	%r14, %rbp
	subq	%r13, %rcx
	movq	%rbp, %rax
	sarq	$3, %rcx
	sarq	$3, %rax
	cmpq	%rax, %rcx
	jb	.L634
	movq	8(%rdi), %rdi
	movq	%rdi, %rdx
	subq	%r13, %rdx
	movq	%rdx, %rcx
	sarq	$3, %rcx
	cmpq	%rcx, %rax
	ja	.L625
	cmpq	%r14, %r15
	jne	.L626
.L633:
	addq	%r13, %rbp
.L624:
	movq	%rbp, 8(%rbx)
.L617:
	addq	$8, %rsp
	.cfi_remember_state
	.cfi_def_cfa_offset 56
	movq	%rbx, %rax
	popq	%rbx
	.cfi_def_cfa_offset 48
	popq	%rbp
	.cfi_def_cfa_offset 40
	popq	%r12
	.cfi_def_cfa_offset 32
	popq	%r13
	.cfi_def_cfa_offset 24
	popq	%r14
	.cfi_def_cfa_offset 16
	popq	%r15
	.cfi_def_cfa_offset 8
	ret
	.p2align 4,,10
	.p2align 3
.L634:
	.cfi_restore_state
	xorl	%r12d, %r12d
	testq	%rax, %rax
	je	.L620
	movabsq	$2305843009213693951, %rdx
	cmpq	%rdx, %rax
	ja	.L635
	movq	%rbp, %rdi
	call	_Znwm@PLT
	movq	(%rbx), %r13
	movq	%rax, %r12
.L620:
	cmpq	%r14, %r15
	je	.L622
	movq	%rbp, %rdx
	movq	%r14, %rsi
	movq	%r12, %rdi
	call	memmove@PLT
.L622:
	testq	%r13, %r13
	je	.L623
	movq	%r13, %rdi
	call	_ZdlPv@PLT
.L623:
	addq	%r12, %rbp
	movq	%r12, (%rbx)
	movq	%rbp, 16(%rbx)
	jmp	.L624
	.p2align 4,,10
	.p2align 3
.L625:
	leaq	(%r14,%rdx), %rsi
	cmpq	%rsi, %r14
	jne	.L636
	cmpq	%rsi, %r15
	je	.L633
.L628:
	movq	%r15, %rdx
	subq	%rsi, %rdx
	call	memmove@PLT
	addq	(%rbx), %rbp
	jmp	.L624
	.p2align 4,,10
	.p2align 3
.L626:
	movq	%rbp, %rdx
	movq	%r14, %rsi
	movq	%r13, %rdi
	call	memmove@PLT
	addq	(%rbx), %rbp
	jmp	.L624
	.p2align 4,,10
	.p2align 3
.L636:
	movq	%r13, %rdi
	movq	%r14, %rsi
	call	memmove@PLT
	movq	8(%rbx), %rdi
	movq	(%rbx), %r13
	movq	8(%r12), %r15
	movq	%rdi, %rsi
	subq	%r13, %rsi
	addq	(%r12), %rsi
	cmpq	%rsi, %r15
	je	.L633
	jmp	.L628
.L635:
	call	_ZSt17__throw_bad_allocv@PLT
	.cfi_endproc
.LFE4148:
	.size	_ZNSt6vectorIPN2ir11InstructionESaIS2_EEaSERKS4_, .-_ZNSt6vectorIPN2ir11InstructionESaIS2_EEaSERKS4_
	.section	.text._ZNSt6vectorIN2ir7OperandESaIS1_EEC2ERKS3_,"axG",@progbits,_ZNSt6vectorIN2ir7OperandESaIS1_EEC5ERKS3_,comdat
	.align 2
	.p2align 4,,15
	.weak	_ZNSt6vectorIN2ir7OperandESaIS1_EEC2ERKS3_
	.type	_ZNSt6vectorIN2ir7OperandESaIS1_EEC2ERKS3_, @function
_ZNSt6vectorIN2ir7OperandESaIS1_EEC2ERKS3_:
.LFB4217:
	.cfi_startproc
	.cfi_personality 0x9b,DW.ref.__gxx_personality_v0
	.cfi_lsda 0x1b,.LLSDA4217
	pushq	%r14
	.cfi_def_cfa_offset 16
	.cfi_offset 14, -16
	pushq	%r13
	.cfi_def_cfa_offset 24
	.cfi_offset 13, -24
	movabsq	$-3689348814741910323, %rdx
	pushq	%r12
	.cfi_def_cfa_offset 32
	.cfi_offset 12, -32
	pushq	%rbp
	.cfi_def_cfa_offset 40
	.cfi_offset 6, -40
	xorl	%r13d, %r13d
	pushq	%rbx
	.cfi_def_cfa_offset 48
	.cfi_offset 3, -48
	movq	8(%rsi), %rbx
	movq	%rdi, %r12
	subq	(%rsi), %rbx
	movq	%rsi, %rbp
	movq	$0, (%rdi)
	movq	$0, 8(%rdi)
	movq	$0, 16(%rdi)
	movq	%rbx, %rax
	sarq	$3, %rax
	imulq	%rdx, %rax
	testq	%rax, %rax
	je	.L639
	movabsq	$461168601842738790, %rdx
	cmpq	%rdx, %rax
	ja	.L660
	movq	%rbx, %rdi
.LEHB50:
	call	_Znwm@PLT
.LEHE50:
	movq	%rax, %r13
.L639:
	addq	%r13, %rbx
	movq	%r13, (%r12)
	movq	%r13, 8(%r12)
	movq	%rbx, 16(%r12)
	movq	8(%rbp), %r14
	movq	0(%rbp), %rbx
	movq	%r13, %rbp
	cmpq	%rbx, %r14
	je	.L641
	.p2align 4,,10
	.p2align 3
.L643:
	testq	%rbp, %rbp
	je	.L644
	movq	%rbx, %rsi
	movq	%rbp, %rdi
.LEHB51:
	call	_ZN2ir7OperandC1ERKS0_@PLT
.LEHE51:
.L644:
	addq	$40, %rbx
	addq	$40, %rbp
	cmpq	%rbx, %r14
	jne	.L643
.L641:
	popq	%rbx
	.cfi_remember_state
	.cfi_def_cfa_offset 40
	movq	%rbp, 8(%r12)
	popq	%rbp
	.cfi_def_cfa_offset 32
	popq	%r12
	.cfi_def_cfa_offset 24
	popq	%r13
	.cfi_def_cfa_offset 16
	popq	%r14
	.cfi_def_cfa_offset 8
	ret
.L660:
	.cfi_restore_state
.LEHB52:
	call	_ZSt17__throw_bad_allocv@PLT
.LEHE52:
.L653:
	movq	%rax, %rdi
	call	__cxa_begin_catch@PLT
.L648:
	cmpq	%rbp, %r13
	je	.L646
	movq	0(%r13), %rdi
	leaq	16(%r13), %rax
	cmpq	%rax, %rdi
	je	.L647
	call	_ZdlPv@PLT
.L647:
	addq	$40, %r13
	jmp	.L648
.L646:
.LEHB53:
	call	__cxa_rethrow@PLT
.LEHE53:
.L652:
	movq	%rax, %rbx
	call	__cxa_end_catch@PLT
	movq	(%r12), %rdi
	testq	%rdi, %rdi
	je	.L650
	call	_ZdlPv@PLT
.L650:
	movq	%rbx, %rdi
.LEHB54:
	call	_Unwind_Resume@PLT
.LEHE54:
	.cfi_endproc
.LFE4217:
	.section	.gcc_except_table
	.align 4
.LLSDA4217:
	.byte	0xff
	.byte	0x9b
	.uleb128 .LLSDATT4217-.LLSDATTD4217
.LLSDATTD4217:
	.byte	0x1
	.uleb128 .LLSDACSE4217-.LLSDACSB4217
.LLSDACSB4217:
	.uleb128 .LEHB50-.LFB4217
	.uleb128 .LEHE50-.LEHB50
	.uleb128 0
	.uleb128 0
	.uleb128 .LEHB51-.LFB4217
	.uleb128 .LEHE51-.LEHB51
	.uleb128 .L653-.LFB4217
	.uleb128 0x1
	.uleb128 .LEHB52-.LFB4217
	.uleb128 .LEHE52-.LEHB52
	.uleb128 0
	.uleb128 0
	.uleb128 .LEHB53-.LFB4217
	.uleb128 .LEHE53-.LEHB53
	.uleb128 .L652-.LFB4217
	.uleb128 0
	.uleb128 .LEHB54-.LFB4217
	.uleb128 .LEHE54-.LEHB54
	.uleb128 0
	.uleb128 0
.LLSDACSE4217:
	.byte	0x1
	.byte	0
	.align 4
	.long	0

.LLSDATT4217:
	.section	.text._ZNSt6vectorIN2ir7OperandESaIS1_EEC2ERKS3_,"axG",@progbits,_ZNSt6vectorIN2ir7OperandESaIS1_EEC5ERKS3_,comdat
	.size	_ZNSt6vectorIN2ir7OperandESaIS1_EEC2ERKS3_, .-_ZNSt6vectorIN2ir7OperandESaIS1_EEC2ERKS3_
	.weak	_ZNSt6vectorIN2ir7OperandESaIS1_EEC1ERKS3_
	.set	_ZNSt6vectorIN2ir7OperandESaIS1_EEC1ERKS3_,_ZNSt6vectorIN2ir7OperandESaIS1_EEC2ERKS3_
	.section	.text._ZNSt8_Rb_treeINSt7__cxx1112basic_stringIcSt11char_traitsIcESaIcEEESt4pairIKS5_PN2ir8FunctionEESt10_Select1stISB_ESt4lessIS5_ESaISB_EE8_M_eraseEPSt13_Rb_tree_nodeISB_E,"axG",@progbits,_ZNSt8_Rb_treeINSt7__cxx1112basic_stringIcSt11char_traitsIcESaIcEEESt4pairIKS5_PN2ir8FunctionEESt10_Select1stISB_ESt4lessIS5_ESaISB_EE8_M_eraseEPSt13_Rb_tree_nodeISB_E,comdat
	.align 2
	.p2align 4,,15
	.weak	_ZNSt8_Rb_treeINSt7__cxx1112basic_stringIcSt11char_traitsIcESaIcEEESt4pairIKS5_PN2ir8FunctionEESt10_Select1stISB_ESt4lessIS5_ESaISB_EE8_M_eraseEPSt13_Rb_tree_nodeISB_E
	.type	_ZNSt8_Rb_treeINSt7__cxx1112basic_stringIcSt11char_traitsIcESaIcEEESt4pairIKS5_PN2ir8FunctionEESt10_Select1stISB_ESt4lessIS5_ESaISB_EE8_M_eraseEPSt13_Rb_tree_nodeISB_E, @function
_ZNSt8_Rb_treeINSt7__cxx1112basic_stringIcSt11char_traitsIcESaIcEEESt4pairIKS5_PN2ir8FunctionEESt10_Select1stISB_ESt4lessIS5_ESaISB_EE8_M_eraseEPSt13_Rb_tree_nodeISB_E:
.LFB4368:
	.cfi_startproc
	pushq	%r15
	.cfi_def_cfa_offset 16
	.cfi_offset 15, -16
	pushq	%r14
	.cfi_def_cfa_offset 24
	.cfi_offset 14, -24
	movq	%rsi, %rax
	pushq	%r13
	.cfi_def_cfa_offset 32
	.cfi_offset 13, -32
	pushq	%r12
	.cfi_def_cfa_offset 40
	.cfi_offset 12, -40
	pushq	%rbp
	.cfi_def_cfa_offset 48
	.cfi_offset 6, -48
	pushq	%rbx
	.cfi_def_cfa_offset 56
	.cfi_offset 3, -56
	movq	%rdi, %rbp
	subq	$56, %rsp
	.cfi_def_cfa_offset 112
	testq	%rsi, %rsi
	movq	%rsi, 40(%rsp)
	je	.L661
.L663:
	movq	24(%rax), %rax
	testq	%rax, %rax
	movq	%rax, 32(%rsp)
	je	.L664
.L665:
	movq	24(%rax), %rax
	testq	%rax, %rax
	movq	%rax, 24(%rsp)
	je	.L666
.L667:
	movq	24(%rax), %rax
	testq	%rax, %rax
	movq	%rax, 16(%rsp)
	je	.L668
.L669:
	movq	24(%rax), %rax
	testq	%rax, %rax
	movq	%rax, 8(%rsp)
	je	.L670
.L671:
	movq	24(%rax), %r13
	testq	%r13, %r13
	je	.L672
.L673:
	movq	24(%r13), %r12
	testq	%r12, %r12
	je	.L674
.L675:
	movq	24(%r12), %rbx
	testq	%rbx, %rbx
	je	.L676
.L677:
	movq	24(%rbx), %r15
	testq	%r15, %r15
	je	.L678
.L679:
	movq	24(%r15), %rsi
	movq	%rbp, %rdi
	call	_ZNSt8_Rb_treeINSt7__cxx1112basic_stringIcSt11char_traitsIcESaIcEEESt4pairIKS5_PN2ir8FunctionEESt10_Select1stISB_ESt4lessIS5_ESaISB_EE8_M_eraseEPSt13_Rb_tree_nodeISB_E
	movq	32(%r15), %rdi
	leaq	48(%r15), %rcx
	movq	16(%r15), %r14
	cmpq	%rcx, %rdi
	je	.L680
	call	_ZdlPv@PLT
	movq	%r15, %rdi
	call	_ZdlPv@PLT
	testq	%r14, %r14
	je	.L678
.L681:
	movq	%r14, %r15
	jmp	.L679
	.p2align 4,,10
	.p2align 3
.L680:
	movq	%r15, %rdi
	call	_ZdlPv@PLT
	testq	%r14, %r14
	jne	.L681
.L678:
	movq	32(%rbx), %rdi
	leaq	48(%rbx), %rdx
	movq	16(%rbx), %r15
	cmpq	%rdx, %rdi
	je	.L682
	call	_ZdlPv@PLT
	movq	%rbx, %rdi
	call	_ZdlPv@PLT
	testq	%r15, %r15
	je	.L676
.L683:
	movq	%r15, %rbx
	jmp	.L677
	.p2align 4,,10
	.p2align 3
.L682:
	movq	%rbx, %rdi
	call	_ZdlPv@PLT
	testq	%r15, %r15
	jne	.L683
.L676:
	movq	32(%r12), %rdi
	leaq	48(%r12), %rax
	movq	16(%r12), %rbx
	cmpq	%rax, %rdi
	je	.L684
	call	_ZdlPv@PLT
	movq	%r12, %rdi
	call	_ZdlPv@PLT
	testq	%rbx, %rbx
	je	.L674
.L685:
	movq	%rbx, %r12
	jmp	.L675
	.p2align 4,,10
	.p2align 3
.L684:
	movq	%r12, %rdi
	call	_ZdlPv@PLT
	testq	%rbx, %rbx
	jne	.L685
.L674:
	movq	32(%r13), %rdi
	leaq	48(%r13), %rax
	movq	16(%r13), %rbx
	cmpq	%rax, %rdi
	je	.L686
	call	_ZdlPv@PLT
	movq	%r13, %rdi
	call	_ZdlPv@PLT
	testq	%rbx, %rbx
	je	.L672
.L687:
	movq	%rbx, %r13
	jmp	.L673
	.p2align 4,,10
	.p2align 3
.L686:
	movq	%r13, %rdi
	call	_ZdlPv@PLT
	testq	%rbx, %rbx
	jne	.L687
.L672:
	movq	8(%rsp), %r14
	movq	32(%r14), %rdi
	leaq	48(%r14), %rax
	movq	16(%r14), %rbx
	cmpq	%rax, %rdi
	je	.L688
	call	_ZdlPv@PLT
	movq	%r14, %rdi
	call	_ZdlPv@PLT
	testq	%rbx, %rbx
	je	.L670
.L689:
	movq	%rbx, 8(%rsp)
	movq	%rbx, %rax
	jmp	.L671
.L688:
	movq	%r14, %rdi
	call	_ZdlPv@PLT
	testq	%rbx, %rbx
	jne	.L689
.L670:
	movq	16(%rsp), %r14
	movq	32(%r14), %rdi
	leaq	48(%r14), %rax
	movq	16(%r14), %rbx
	cmpq	%rax, %rdi
	je	.L690
	call	_ZdlPv@PLT
	movq	%r14, %rdi
	call	_ZdlPv@PLT
	testq	%rbx, %rbx
	je	.L668
.L691:
	movq	%rbx, 16(%rsp)
	movq	%rbx, %rax
	jmp	.L669
.L690:
	movq	%r14, %rdi
	call	_ZdlPv@PLT
	testq	%rbx, %rbx
	jne	.L691
.L668:
	movq	24(%rsp), %r14
	movq	32(%r14), %rdi
	leaq	48(%r14), %rax
	movq	16(%r14), %rbx
	cmpq	%rax, %rdi
	je	.L692
	call	_ZdlPv@PLT
	movq	%r14, %rdi
	call	_ZdlPv@PLT
	testq	%rbx, %rbx
	je	.L666
.L693:
	movq	%rbx, 24(%rsp)
	movq	%rbx, %rax
	jmp	.L667
.L692:
	movq	%r14, %rdi
	call	_ZdlPv@PLT
	testq	%rbx, %rbx
	jne	.L693
.L666:
	movq	32(%rsp), %r14
	movq	32(%r14), %rdi
	leaq	48(%r14), %rax
	movq	16(%r14), %rbx
	cmpq	%rax, %rdi
	je	.L694
	call	_ZdlPv@PLT
	movq	%r14, %rdi
	call	_ZdlPv@PLT
	testq	%rbx, %rbx
	je	.L664
.L695:
	movq	%rbx, 32(%rsp)
	movq	%rbx, %rax
	jmp	.L665
.L694:
	movq	%r14, %rdi
	call	_ZdlPv@PLT
	testq	%rbx, %rbx
	jne	.L695
.L664:
	movq	40(%rsp), %r14
	movq	32(%r14), %rdi
	leaq	48(%r14), %rax
	movq	16(%r14), %rbx
	cmpq	%rax, %rdi
	je	.L696
	call	_ZdlPv@PLT
	movq	%r14, %rdi
	call	_ZdlPv@PLT
	testq	%rbx, %rbx
	je	.L661
.L697:
	movq	%rbx, 40(%rsp)
	movq	%rbx, %rax
	jmp	.L663
.L696:
	movq	%r14, %rdi
	call	_ZdlPv@PLT
	testq	%rbx, %rbx
	jne	.L697
.L661:
	addq	$56, %rsp
	.cfi_def_cfa_offset 56
	popq	%rbx
	.cfi_def_cfa_offset 48
	popq	%rbp
	.cfi_def_cfa_offset 40
	popq	%r12
	.cfi_def_cfa_offset 32
	popq	%r13
	.cfi_def_cfa_offset 24
	popq	%r14
	.cfi_def_cfa_offset 16
	popq	%r15
	.cfi_def_cfa_offset 8
	ret
	.cfi_endproc
.LFE4368:
	.size	_ZNSt8_Rb_treeINSt7__cxx1112basic_stringIcSt11char_traitsIcESaIcEEESt4pairIKS5_PN2ir8FunctionEESt10_Select1stISB_ESt4lessIS5_ESaISB_EE8_M_eraseEPSt13_Rb_tree_nodeISB_E, .-_ZNSt8_Rb_treeINSt7__cxx1112basic_stringIcSt11char_traitsIcESaIcEEESt4pairIKS5_PN2ir8FunctionEESt10_Select1stISB_ESt4lessIS5_ESaISB_EE8_M_eraseEPSt13_Rb_tree_nodeISB_E
	.section	.text._ZNSt3mapINSt7__cxx1112basic_stringIcSt11char_traitsIcESaIcEEEPN2ir8FunctionESt4lessIS5_ESaISt4pairIKS5_S8_EEED2Ev,"axG",@progbits,_ZNSt3mapINSt7__cxx1112basic_stringIcSt11char_traitsIcESaIcEEEPN2ir8FunctionESt4lessIS5_ESaISt4pairIKS5_S8_EEED5Ev,comdat
	.align 2
	.p2align 4,,15
	.weak	_ZNSt3mapINSt7__cxx1112basic_stringIcSt11char_traitsIcESaIcEEEPN2ir8FunctionESt4lessIS5_ESaISt4pairIKS5_S8_EEED2Ev
	.type	_ZNSt3mapINSt7__cxx1112basic_stringIcSt11char_traitsIcESaIcEEEPN2ir8FunctionESt4lessIS5_ESaISt4pairIKS5_S8_EEED2Ev, @function
_ZNSt3mapINSt7__cxx1112basic_stringIcSt11char_traitsIcESaIcEEEPN2ir8FunctionESt4lessIS5_ESaISt4pairIKS5_S8_EEED2Ev:
.LFB3551:
	.cfi_startproc
	pushq	%r12
	.cfi_def_cfa_offset 16
	.cfi_offset 12, -16
	pushq	%rbp
	.cfi_def_cfa_offset 24
	.cfi_offset 6, -24
	movq	%rdi, %r12
	pushq	%rbx
	.cfi_def_cfa_offset 32
	.cfi_offset 3, -32
	movq	16(%rdi), %rbx
	testq	%rbx, %rbx
	je	.L754
.L756:
	movq	24(%rbx), %rsi
	movq	%r12, %rdi
	call	_ZNSt8_Rb_treeINSt7__cxx1112basic_stringIcSt11char_traitsIcESaIcEEESt4pairIKS5_PN2ir8FunctionEESt10_Select1stISB_ESt4lessIS5_ESaISB_EE8_M_eraseEPSt13_Rb_tree_nodeISB_E
	movq	32(%rbx), %rdi
	leaq	48(%rbx), %rax
	movq	16(%rbx), %rbp
	cmpq	%rax, %rdi
	je	.L757
	call	_ZdlPv@PLT
	movq	%rbx, %rdi
	call	_ZdlPv@PLT
	testq	%rbp, %rbp
	je	.L754
.L758:
	movq	%rbp, %rbx
	jmp	.L756
	.p2align 4,,10
	.p2align 3
.L757:
	movq	%rbx, %rdi
	call	_ZdlPv@PLT
	testq	%rbp, %rbp
	jne	.L758
.L754:
	popq	%rbx
	.cfi_def_cfa_offset 24
	popq	%rbp
	.cfi_def_cfa_offset 16
	popq	%r12
	.cfi_def_cfa_offset 8
	ret
	.cfi_endproc
.LFE3551:
	.size	_ZNSt3mapINSt7__cxx1112basic_stringIcSt11char_traitsIcESaIcEEEPN2ir8FunctionESt4lessIS5_ESaISt4pairIKS5_S8_EEED2Ev, .-_ZNSt3mapINSt7__cxx1112basic_stringIcSt11char_traitsIcESaIcEEEPN2ir8FunctionESt4lessIS5_ESaISt4pairIKS5_S8_EEED2Ev
	.weak	_ZNSt3mapINSt7__cxx1112basic_stringIcSt11char_traitsIcESaIcEEEPN2ir8FunctionESt4lessIS5_ESaISt4pairIKS5_S8_EEED1Ev
	.set	_ZNSt3mapINSt7__cxx1112basic_stringIcSt11char_traitsIcESaIcEEEPN2ir8FunctionESt4lessIS5_ESaISt4pairIKS5_S8_EEED1Ev,_ZNSt3mapINSt7__cxx1112basic_stringIcSt11char_traitsIcESaIcEEEPN2ir8FunctionESt4lessIS5_ESaISt4pairIKS5_S8_EEED2Ev
	.section	.text._ZNSt8_Rb_treeINSt7__cxx1112basic_stringIcSt11char_traitsIcESaIcEEESt4pairIKS5_N8frontend3STEEESt10_Select1stISA_ESt4lessIS5_ESaISA_EE8_M_eraseEPSt13_Rb_tree_nodeISA_E,"axG",@progbits,_ZNSt8_Rb_treeINSt7__cxx1112basic_stringIcSt11char_traitsIcESaIcEEESt4pairIKS5_N8frontend3STEEESt10_Select1stISA_ESt4lessIS5_ESaISA_EE8_M_eraseEPSt13_Rb_tree_nodeISA_E,comdat
	.align 2
	.p2align 4,,15
	.weak	_ZNSt8_Rb_treeINSt7__cxx1112basic_stringIcSt11char_traitsIcESaIcEEESt4pairIKS5_N8frontend3STEEESt10_Select1stISA_ESt4lessIS5_ESaISA_EE8_M_eraseEPSt13_Rb_tree_nodeISA_E
	.type	_ZNSt8_Rb_treeINSt7__cxx1112basic_stringIcSt11char_traitsIcESaIcEEESt4pairIKS5_N8frontend3STEEESt10_Select1stISA_ESt4lessIS5_ESaISA_EE8_M_eraseEPSt13_Rb_tree_nodeISA_E, @function
_ZNSt8_Rb_treeINSt7__cxx1112basic_stringIcSt11char_traitsIcESaIcEEESt4pairIKS5_N8frontend3STEEESt10_Select1stISA_ESt4lessIS5_ESaISA_EE8_M_eraseEPSt13_Rb_tree_nodeISA_E:
.LFB4376:
	.cfi_startproc
	pushq	%r15
	.cfi_def_cfa_offset 16
	.cfi_offset 15, -16
	pushq	%r14
	.cfi_def_cfa_offset 24
	.cfi_offset 14, -24
	movq	%rsi, %rax
	pushq	%r13
	.cfi_def_cfa_offset 32
	.cfi_offset 13, -32
	pushq	%r12
	.cfi_def_cfa_offset 40
	.cfi_offset 12, -40
	movq	%rdi, %r13
	pushq	%rbp
	.cfi_def_cfa_offset 48
	.cfi_offset 6, -48
	pushq	%rbx
	.cfi_def_cfa_offset 56
	.cfi_offset 3, -56
	subq	$56, %rsp
	.cfi_def_cfa_offset 112
	testq	%rsi, %rsi
	movq	%rsi, 40(%rsp)
	je	.L767
.L769:
	movq	24(%rax), %rax
	testq	%rax, %rax
	movq	%rax, 32(%rsp)
	je	.L770
.L771:
	movq	24(%rax), %rax
	testq	%rax, %rax
	movq	%rax, 24(%rsp)
	je	.L772
.L773:
	movq	24(%rax), %rax
	testq	%rax, %rax
	movq	%rax, 16(%rsp)
	je	.L774
.L775:
	movq	24(%rax), %rax
	testq	%rax, %rax
	movq	%rax, 8(%rsp)
	je	.L776
.L777:
	movq	24(%rax), %r14
	testq	%r14, %r14
	je	.L778
.L779:
	movq	24(%r14), %r12
	testq	%r12, %r12
	je	.L780
.L781:
	movq	24(%r12), %rbx
	testq	%rbx, %rbx
	je	.L782
.L783:
	movq	24(%rbx), %r15
	testq	%r15, %r15
	je	.L784
.L785:
	movq	24(%r15), %rsi
	movq	%r13, %rdi
	call	_ZNSt8_Rb_treeINSt7__cxx1112basic_stringIcSt11char_traitsIcESaIcEEESt4pairIKS5_N8frontend3STEEESt10_Select1stISA_ESt4lessIS5_ESaISA_EE8_M_eraseEPSt13_Rb_tree_nodeISA_E
	movq	104(%r15), %rdi
	movq	16(%r15), %rbp
	testq	%rdi, %rdi
	je	.L786
	call	_ZdlPv@PLT
.L786:
	movq	64(%r15), %rdi
	leaq	80(%r15), %rdx
	cmpq	%rdx, %rdi
	je	.L787
	call	_ZdlPv@PLT
.L787:
	movq	32(%r15), %rdi
	leaq	48(%r15), %rdx
	cmpq	%rdx, %rdi
	je	.L788
	call	_ZdlPv@PLT
	movq	%r15, %rdi
	call	_ZdlPv@PLT
	testq	%rbp, %rbp
	je	.L784
.L789:
	movq	%rbp, %r15
	jmp	.L785
	.p2align 4,,10
	.p2align 3
.L788:
	movq	%r15, %rdi
	call	_ZdlPv@PLT
	testq	%rbp, %rbp
	jne	.L789
.L784:
	movq	104(%rbx), %rdi
	movq	16(%rbx), %rbp
	testq	%rdi, %rdi
	je	.L790
	call	_ZdlPv@PLT
.L790:
	movq	64(%rbx), %rdi
	leaq	80(%rbx), %rax
	cmpq	%rax, %rdi
	je	.L791
	call	_ZdlPv@PLT
.L791:
	movq	32(%rbx), %rdi
	leaq	48(%rbx), %rax
	cmpq	%rax, %rdi
	je	.L792
	call	_ZdlPv@PLT
	movq	%rbx, %rdi
	call	_ZdlPv@PLT
	testq	%rbp, %rbp
	je	.L782
.L793:
	movq	%rbp, %rbx
	jmp	.L783
	.p2align 4,,10
	.p2align 3
.L792:
	movq	%rbx, %rdi
	call	_ZdlPv@PLT
	testq	%rbp, %rbp
	jne	.L793
.L782:
	movq	104(%r12), %rdi
	movq	16(%r12), %rbx
	testq	%rdi, %rdi
	je	.L794
	call	_ZdlPv@PLT
.L794:
	movq	64(%r12), %rdi
	leaq	80(%r12), %rax
	cmpq	%rax, %rdi
	je	.L795
	call	_ZdlPv@PLT
.L795:
	movq	32(%r12), %rdi
	leaq	48(%r12), %rax
	cmpq	%rax, %rdi
	je	.L796
	call	_ZdlPv@PLT
	movq	%r12, %rdi
	call	_ZdlPv@PLT
	testq	%rbx, %rbx
	je	.L780
.L797:
	movq	%rbx, %r12
	jmp	.L781
	.p2align 4,,10
	.p2align 3
.L796:
	movq	%r12, %rdi
	call	_ZdlPv@PLT
	testq	%rbx, %rbx
	jne	.L797
.L780:
	movq	104(%r14), %rdi
	movq	16(%r14), %rbx
	testq	%rdi, %rdi
	je	.L798
	call	_ZdlPv@PLT
.L798:
	movq	64(%r14), %rdi
	leaq	80(%r14), %rax
	cmpq	%rax, %rdi
	je	.L799
	call	_ZdlPv@PLT
.L799:
	movq	32(%r14), %rdi
	leaq	48(%r14), %rax
	cmpq	%rax, %rdi
	je	.L800
	call	_ZdlPv@PLT
	movq	%r14, %rdi
	call	_ZdlPv@PLT
	testq	%rbx, %rbx
	je	.L778
.L801:
	movq	%rbx, %r14
	jmp	.L779
	.p2align 4,,10
	.p2align 3
.L800:
	movq	%r14, %rdi
	call	_ZdlPv@PLT
	testq	%rbx, %rbx
	jne	.L801
.L778:
	movq	8(%rsp), %rax
	movq	104(%rax), %rdi
	movq	16(%rax), %rbx
	testq	%rdi, %rdi
	je	.L802
	call	_ZdlPv@PLT
	movq	8(%rsp), %rax
.L802:
	movq	64(%rax), %rdi
	addq	$80, %rax
	cmpq	%rax, %rdi
	je	.L803
	call	_ZdlPv@PLT
.L803:
	movq	8(%rsp), %r14
	movq	32(%r14), %rdi
	leaq	48(%r14), %rax
	cmpq	%rax, %rdi
	je	.L804
	call	_ZdlPv@PLT
	movq	%r14, %rdi
	call	_ZdlPv@PLT
	testq	%rbx, %rbx
	je	.L776
.L805:
	movq	%rbx, 8(%rsp)
	movq	%rbx, %rax
	jmp	.L777
.L804:
	movq	%r14, %rdi
	call	_ZdlPv@PLT
	testq	%rbx, %rbx
	jne	.L805
.L776:
	movq	16(%rsp), %rax
	movq	104(%rax), %rdi
	movq	16(%rax), %rbx
	testq	%rdi, %rdi
	je	.L806
	call	_ZdlPv@PLT
	movq	16(%rsp), %rax
.L806:
	movq	64(%rax), %rdi
	addq	$80, %rax
	cmpq	%rax, %rdi
	je	.L807
	call	_ZdlPv@PLT
.L807:
	movq	16(%rsp), %r14
	movq	32(%r14), %rdi
	leaq	48(%r14), %rax
	cmpq	%rax, %rdi
	je	.L808
	call	_ZdlPv@PLT
	movq	%r14, %rdi
	call	_ZdlPv@PLT
	testq	%rbx, %rbx
	je	.L774
.L809:
	movq	%rbx, 16(%rsp)
	movq	%rbx, %rax
	jmp	.L775
.L808:
	movq	%r14, %rdi
	call	_ZdlPv@PLT
	testq	%rbx, %rbx
	jne	.L809
.L774:
	movq	24(%rsp), %rax
	movq	104(%rax), %rdi
	movq	16(%rax), %rbx
	testq	%rdi, %rdi
	je	.L810
	call	_ZdlPv@PLT
	movq	24(%rsp), %rax
.L810:
	movq	64(%rax), %rdi
	addq	$80, %rax
	cmpq	%rax, %rdi
	je	.L811
	call	_ZdlPv@PLT
.L811:
	movq	24(%rsp), %r14
	movq	32(%r14), %rdi
	leaq	48(%r14), %rax
	cmpq	%rax, %rdi
	je	.L812
	call	_ZdlPv@PLT
	movq	%r14, %rdi
	call	_ZdlPv@PLT
	testq	%rbx, %rbx
	je	.L772
.L813:
	movq	%rbx, 24(%rsp)
	movq	%rbx, %rax
	jmp	.L773
.L812:
	movq	%r14, %rdi
	call	_ZdlPv@PLT
	testq	%rbx, %rbx
	jne	.L813
.L772:
	movq	32(%rsp), %rax
	movq	104(%rax), %rdi
	movq	16(%rax), %rbx
	testq	%rdi, %rdi
	je	.L814
	call	_ZdlPv@PLT
	movq	32(%rsp), %rax
.L814:
	movq	64(%rax), %rdi
	addq	$80, %rax
	cmpq	%rax, %rdi
	je	.L815
	call	_ZdlPv@PLT
.L815:
	movq	32(%rsp), %r14
	movq	32(%r14), %rdi
	leaq	48(%r14), %rax
	cmpq	%rax, %rdi
	je	.L816
	call	_ZdlPv@PLT
	movq	%r14, %rdi
	call	_ZdlPv@PLT
	testq	%rbx, %rbx
	je	.L770
.L817:
	movq	%rbx, 32(%rsp)
	movq	%rbx, %rax
	jmp	.L771
.L816:
	movq	%r14, %rdi
	call	_ZdlPv@PLT
	testq	%rbx, %rbx
	jne	.L817
.L770:
	movq	40(%rsp), %rax
	movq	104(%rax), %rdi
	movq	16(%rax), %rbx
	testq	%rdi, %rdi
	je	.L818
	call	_ZdlPv@PLT
	movq	40(%rsp), %rax
.L818:
	movq	64(%rax), %rdi
	addq	$80, %rax
	cmpq	%rax, %rdi
	je	.L819
	call	_ZdlPv@PLT
.L819:
	movq	40(%rsp), %r14
	movq	32(%r14), %rdi
	leaq	48(%r14), %rax
	cmpq	%rax, %rdi
	je	.L820
	call	_ZdlPv@PLT
	movq	%r14, %rdi
	call	_ZdlPv@PLT
	testq	%rbx, %rbx
	je	.L767
.L821:
	movq	%rbx, 40(%rsp)
	movq	%rbx, %rax
	jmp	.L769
.L820:
	movq	%r14, %rdi
	call	_ZdlPv@PLT
	testq	%rbx, %rbx
	jne	.L821
.L767:
	addq	$56, %rsp
	.cfi_def_cfa_offset 56
	popq	%rbx
	.cfi_def_cfa_offset 48
	popq	%rbp
	.cfi_def_cfa_offset 40
	popq	%r12
	.cfi_def_cfa_offset 32
	popq	%r13
	.cfi_def_cfa_offset 24
	popq	%r14
	.cfi_def_cfa_offset 16
	popq	%r15
	.cfi_def_cfa_offset 8
	ret
	.cfi_endproc
.LFE4376:
	.size	_ZNSt8_Rb_treeINSt7__cxx1112basic_stringIcSt11char_traitsIcESaIcEEESt4pairIKS5_N8frontend3STEEESt10_Select1stISA_ESt4lessIS5_ESaISA_EE8_M_eraseEPSt13_Rb_tree_nodeISA_E, .-_ZNSt8_Rb_treeINSt7__cxx1112basic_stringIcSt11char_traitsIcESaIcEEESt4pairIKS5_N8frontend3STEEESt10_Select1stISA_ESt4lessIS5_ESaISA_EE8_M_eraseEPSt13_Rb_tree_nodeISA_E
	.text
	.align 2
	.p2align 4,,15
	.globl	_ZN8frontend11SymbolTable10exit_scopeEv
	.type	_ZN8frontend11SymbolTable10exit_scopeEv, @function
_ZN8frontend11SymbolTable10exit_scopeEv:
.LFB3593:
	.cfi_startproc
	pushq	%r13
	.cfi_def_cfa_offset 16
	.cfi_offset 13, -16
	pushq	%r12
	.cfi_def_cfa_offset 24
	.cfi_offset 12, -24
	pushq	%rbp
	.cfi_def_cfa_offset 32
	.cfi_offset 6, -32
	pushq	%rbx
	.cfi_def_cfa_offset 40
	.cfi_offset 3, -40
	subq	$8, %rsp
	.cfi_def_cfa_offset 48
	movq	8(%rdi), %rbp
	movq	-32(%rbp), %rbx
	leaq	-88(%rbp), %rax
	movq	%rax, 8(%rdi)
	testq	%rbx, %rbx
	je	.L906
	leaq	-48(%rbp), %r13
.L907:
	movq	24(%rbx), %rsi
	movq	%r13, %rdi
	call	_ZNSt8_Rb_treeINSt7__cxx1112basic_stringIcSt11char_traitsIcESaIcEEESt4pairIKS5_N8frontend3STEEESt10_Select1stISA_ESt4lessIS5_ESaISA_EE8_M_eraseEPSt13_Rb_tree_nodeISA_E
	movq	104(%rbx), %rdi
	movq	16(%rbx), %r12
	testq	%rdi, %rdi
	je	.L908
	call	_ZdlPv@PLT
.L908:
	movq	64(%rbx), %rdi
	leaq	80(%rbx), %rax
	cmpq	%rax, %rdi
	je	.L909
	call	_ZdlPv@PLT
.L909:
	movq	32(%rbx), %rdi
	leaq	48(%rbx), %rax
	cmpq	%rax, %rdi
	je	.L910
	call	_ZdlPv@PLT
	movq	%rbx, %rdi
	call	_ZdlPv@PLT
	testq	%r12, %r12
	je	.L906
.L911:
	movq	%r12, %rbx
	jmp	.L907
	.p2align 4,,10
	.p2align 3
.L910:
	movq	%rbx, %rdi
	call	_ZdlPv@PLT
	testq	%r12, %r12
	jne	.L911
.L906:
	movq	-80(%rbp), %rdi
	subq	$64, %rbp
	cmpq	%rbp, %rdi
	je	.L905
	addq	$8, %rsp
	.cfi_remember_state
	.cfi_def_cfa_offset 40
	popq	%rbx
	.cfi_def_cfa_offset 32
	popq	%rbp
	.cfi_def_cfa_offset 24
	popq	%r12
	.cfi_def_cfa_offset 16
	popq	%r13
	.cfi_def_cfa_offset 8
	jmp	_ZdlPv@PLT
	.p2align 4,,10
	.p2align 3
.L905:
	.cfi_restore_state
	addq	$8, %rsp
	.cfi_def_cfa_offset 40
	popq	%rbx
	.cfi_def_cfa_offset 32
	popq	%rbp
	.cfi_def_cfa_offset 24
	popq	%r12
	.cfi_def_cfa_offset 16
	popq	%r13
	.cfi_def_cfa_offset 8
	ret
	.cfi_endproc
.LFE3593:
	.size	_ZN8frontend11SymbolTable10exit_scopeEv, .-_ZN8frontend11SymbolTable10exit_scopeEv
	.section	.text._ZN8frontend9ScopeInfoD2Ev,"axG",@progbits,_ZN8frontend9ScopeInfoD5Ev,comdat
	.align 2
	.p2align 4,,15
	.weak	_ZN8frontend9ScopeInfoD2Ev
	.type	_ZN8frontend9ScopeInfoD2Ev, @function
_ZN8frontend9ScopeInfoD2Ev:
.LFB3573:
	.cfi_startproc
	pushq	%r13
	.cfi_def_cfa_offset 16
	.cfi_offset 13, -16
	pushq	%r12
	.cfi_def_cfa_offset 24
	.cfi_offset 12, -24
	leaq	40(%rdi), %r13
	pushq	%rbp
	.cfi_def_cfa_offset 32
	.cfi_offset 6, -32
	pushq	%rbx
	.cfi_def_cfa_offset 40
	.cfi_offset 3, -40
	movq	%rdi, %r12
	subq	$8, %rsp
	.cfi_def_cfa_offset 48
	movq	56(%rdi), %rbx
	testq	%rbx, %rbx
	je	.L924
.L925:
	movq	24(%rbx), %rsi
	movq	%r13, %rdi
	call	_ZNSt8_Rb_treeINSt7__cxx1112basic_stringIcSt11char_traitsIcESaIcEEESt4pairIKS5_N8frontend3STEEESt10_Select1stISA_ESt4lessIS5_ESaISA_EE8_M_eraseEPSt13_Rb_tree_nodeISA_E
	movq	104(%rbx), %rdi
	movq	16(%rbx), %rbp
	testq	%rdi, %rdi
	je	.L926
	call	_ZdlPv@PLT
.L926:
	movq	64(%rbx), %rdi
	leaq	80(%rbx), %rax
	cmpq	%rax, %rdi
	je	.L927
	call	_ZdlPv@PLT
.L927:
	movq	32(%rbx), %rdi
	leaq	48(%rbx), %rax
	cmpq	%rax, %rdi
	je	.L928
	call	_ZdlPv@PLT
	movq	%rbx, %rdi
	call	_ZdlPv@PLT
	testq	%rbp, %rbp
	je	.L924
.L929:
	movq	%rbp, %rbx
	jmp	.L925
	.p2align 4,,10
	.p2align 3
.L928:
	movq	%rbx, %rdi
	call	_ZdlPv@PLT
	testq	%rbp, %rbp
	jne	.L929
.L924:
	movq	8(%r12), %rdi
	addq	$24, %r12
	cmpq	%r12, %rdi
	je	.L923
	addq	$8, %rsp
	.cfi_remember_state
	.cfi_def_cfa_offset 40
	popq	%rbx
	.cfi_def_cfa_offset 32
	popq	%rbp
	.cfi_def_cfa_offset 24
	popq	%r12
	.cfi_def_cfa_offset 16
	popq	%r13
	.cfi_def_cfa_offset 8
	jmp	_ZdlPv@PLT
	.p2align 4,,10
	.p2align 3
.L923:
	.cfi_restore_state
	addq	$8, %rsp
	.cfi_def_cfa_offset 40
	popq	%rbx
	.cfi_def_cfa_offset 32
	popq	%rbp
	.cfi_def_cfa_offset 24
	popq	%r12
	.cfi_def_cfa_offset 16
	popq	%r13
	.cfi_def_cfa_offset 8
	ret
	.cfi_endproc
.LFE3573:
	.size	_ZN8frontend9ScopeInfoD2Ev, .-_ZN8frontend9ScopeInfoD2Ev
	.weak	_ZN8frontend9ScopeInfoD1Ev
	.set	_ZN8frontend9ScopeInfoD1Ev,_ZN8frontend9ScopeInfoD2Ev
	.section	.text._ZNSt6vectorIPN2ir11InstructionESaIS2_EE12emplace_backIJS2_EEEvDpOT_,"axG",@progbits,_ZNSt6vectorIPN2ir11InstructionESaIS2_EE12emplace_backIJS2_EEEvDpOT_,comdat
	.align 2
	.p2align 4,,15
	.weak	_ZNSt6vectorIPN2ir11InstructionESaIS2_EE12emplace_backIJS2_EEEvDpOT_
	.type	_ZNSt6vectorIPN2ir11InstructionESaIS2_EE12emplace_backIJS2_EEEvDpOT_, @function
_ZNSt6vectorIPN2ir11InstructionESaIS2_EE12emplace_backIJS2_EEEvDpOT_:
.LFB4504:
	.cfi_startproc
	pushq	%r15
	.cfi_def_cfa_offset 16
	.cfi_offset 15, -16
	pushq	%r14
	.cfi_def_cfa_offset 24
	.cfi_offset 14, -24
	pushq	%r13
	.cfi_def_cfa_offset 32
	.cfi_offset 13, -32
	pushq	%r12
	.cfi_def_cfa_offset 40
	.cfi_offset 12, -40
	pushq	%rbp
	.cfi_def_cfa_offset 48
	.cfi_offset 6, -48
	pushq	%rbx
	.cfi_def_cfa_offset 56
	.cfi_offset 3, -56
	subq	$8, %rsp
	.cfi_def_cfa_offset 64
	movq	8(%rdi), %rbx
	cmpq	16(%rdi), %rbx
	je	.L942
	testq	%rbx, %rbx
	je	.L943
	movq	(%rsi), %rax
	movq	%rax, (%rbx)
.L943:
	addq	$8, %rbx
	movq	%rbx, 8(%rdi)
	addq	$8, %rsp
	.cfi_remember_state
	.cfi_def_cfa_offset 56
	popq	%rbx
	.cfi_def_cfa_offset 48
	popq	%rbp
	.cfi_def_cfa_offset 40
	popq	%r12
	.cfi_def_cfa_offset 32
	popq	%r13
	.cfi_def_cfa_offset 24
	popq	%r14
	.cfi_def_cfa_offset 16
	popq	%r15
	.cfi_def_cfa_offset 8
	ret
	.p2align 4,,10
	.p2align 3
.L942:
	.cfi_restore_state
	movq	%rbx, %r14
	subq	(%rdi), %r14
	movq	%rsi, %r12
	movq	%rdi, %rbp
	movq	%r14, %rax
	sarq	$3, %rax
	testq	%rax, %rax
	je	.L951
	leaq	(%rax,%rax), %rdx
	movq	$-8, %r15
	cmpq	%rdx, %rax
	jbe	.L966
.L945:
	movq	%r15, %rdi
	call	_Znwm@PLT
	movq	%rax, %r13
.L946:
	addq	%r13, %r14
	je	.L947
	movq	(%r12), %rax
	movq	%rax, (%r14)
.L947:
	movq	0(%rbp), %r12
	movq	%rbx, %r14
	subq	%r12, %r14
	cmpq	%rbx, %r12
	je	.L948
	movq	%r14, %rdx
	movq	%r12, %rsi
	movq	%r13, %rdi
	call	memmove@PLT
.L948:
	movq	8(%rbp), %rax
	leaq	8(%r13,%r14), %rcx
	movq	%rax, %r14
	subq	%rbx, %r14
	cmpq	%rbx, %rax
	je	.L949
	movq	%rcx, %rdi
	movq	%r14, %rdx
	movq	%rbx, %rsi
	call	memmove@PLT
	movq	%rax, %rcx
.L949:
	addq	%rcx, %r14
	testq	%r12, %r12
	je	.L950
	movq	%r12, %rdi
	call	_ZdlPv@PLT
.L950:
	movq	%r13, 0(%rbp)
	addq	%r15, %r13
	movq	%r14, 8(%rbp)
	movq	%r13, 16(%rbp)
	addq	$8, %rsp
	.cfi_remember_state
	.cfi_def_cfa_offset 56
	popq	%rbx
	.cfi_def_cfa_offset 48
	popq	%rbp
	.cfi_def_cfa_offset 40
	popq	%r12
	.cfi_def_cfa_offset 32
	popq	%r13
	.cfi_def_cfa_offset 24
	popq	%r14
	.cfi_def_cfa_offset 16
	popq	%r15
	.cfi_def_cfa_offset 8
	ret
	.p2align 4,,10
	.p2align 3
.L951:
	.cfi_restore_state
	movl	$8, %r15d
	jmp	.L945
	.p2align 4,,10
	.p2align 3
.L966:
	movabsq	$2305843009213693951, %rcx
	cmpq	%rcx, %rdx
	ja	.L945
	xorl	%r15d, %r15d
	xorl	%r13d, %r13d
	testq	%rdx, %rdx
	je	.L946
	salq	$4, %rax
	movq	%rax, %r15
	jmp	.L945
	.cfi_endproc
.LFE4504:
	.size	_ZNSt6vectorIPN2ir11InstructionESaIS2_EE12emplace_backIJS2_EEEvDpOT_, .-_ZNSt6vectorIPN2ir11InstructionESaIS2_EE12emplace_backIJS2_EEEvDpOT_
	.section	.rodata.str1.8
	.align 8
.LC13:
	.string	"(operand.type != Type::null) && \"In frontend::Analyzer::castExpectedType: null operand!!!\""
	.align 8
.LC14:
	.string	"(Type::Int == tp || Type::Float == tp) && \"In frontend::Analyzer::castExpectedType: unexpected target type!!!\""
	.section	.rodata.str1.1
.LC15:
	.string	"$cst"
.LC16:
	.string	"null"
.LC17:
	.string	"In cast check: "
.LC18:
	.string	"0"
	.text
	.align 2
	.p2align 4,,15
	.globl	_ZN8frontend8Analyzer16castExpectedTypeEN2ir7OperandENS1_4TypeERSt6vectorIPNS1_11InstructionESaIS6_EE
	.type	_ZN8frontend8Analyzer16castExpectedTypeEN2ir7OperandENS1_4TypeERSt6vectorIPNS1_11InstructionESaIS6_EE, @function
_ZN8frontend8Analyzer16castExpectedTypeEN2ir7OperandENS1_4TypeERSt6vectorIPNS1_11InstructionESaIS6_EE:
.LFB3710:
	.cfi_startproc
	.cfi_personality 0x9b,DW.ref.__gxx_personality_v0
	.cfi_lsda 0x1b,.LLSDA3710
	pushq	%r15
	.cfi_def_cfa_offset 16
	.cfi_offset 15, -16
	pushq	%r14
	.cfi_def_cfa_offset 24
	.cfi_offset 14, -24
	pushq	%r13
	.cfi_def_cfa_offset 32
	.cfi_offset 13, -32
	pushq	%r12
	.cfi_def_cfa_offset 40
	.cfi_offset 12, -40
	pushq	%rbp
	.cfi_def_cfa_offset 48
	.cfi_offset 6, -48
	pushq	%rbx
	.cfi_def_cfa_offset 56
	.cfi_offset 3, -56
	movq	%rdx, %rbx
	subq	$424, %rsp
	.cfi_def_cfa_offset 480
	movq	%fs:40, %rax
	movq	%rax, 408(%rsp)
	xorl	%eax, %eax
	movl	32(%rdx), %eax
	movq	%rdi, 8(%rsp)
	movq	%r8, 24(%rsp)
	cmpl	%ecx, %eax
	je	.L1239
	cmpl	$2, %eax
	movl	%ecx, %r14d
	je	.L1240
	cmpl	$3, %eax
	je	.L1241
	cmpl	$6, %eax
	je	.L1242
.L971:
	cmpl	$1, %r14d
	ja	.L1243
	leaq	4+.LC15(%rip), %rdx
	leaq	80(%rsp), %r13
	leaq	-4(%rdx), %rsi
	leaq	16(%r13), %rax
	movq	%r13, %rdi
	movq	%rax, 80(%rsp)
.LEHB55:
	call	_ZNSt7__cxx1112basic_stringIcSt11char_traitsIcESaIcEE12_M_constructIPKcEEvT_S8_St20forward_iterator_tag.isra.146
.LEHE55:
	leaq	112(%rsp), %rdi
	movq	(%rbx), %rsi
	movq	8(%rbx), %rdx
	leaq	16(%rdi), %rax
	movq	%rdi, 32(%rsp)
	addq	%rsi, %rdx
	movq	%rax, 112(%rsp)
.LEHB56:
	call	_ZNSt7__cxx1112basic_stringIcSt11char_traitsIcESaIcEE12_M_constructIPcEEvT_S7_St20forward_iterator_tag.isra.160
.LEHE56:
	leaq	144(%rsp), %rax
	movq	%rbx, %rdx
	movq	%r13, %rsi
	movq	%rax, %rdi
	movq	%rax, 16(%rsp)
.LEHB57:
	call	_ZStplIcSt11char_traitsIcESaIcEENSt7__cxx1112basic_stringIT_T0_T1_EERKS8_SA_
.LEHE57:
	movl	32(%rbx), %eax
	cmpl	$2, %eax
	je	.L1244
	cmpl	$3, %eax
	je	.L1245
	cmpl	$4, %eax
	je	.L1246
	cmpl	$5, %eax
	je	.L1247
.L1002:
	cmpl	%eax, %r14d
	je	.L1023
	movq	16(%rsp), %r15
	leaq	368(%rsp), %rbp
	movl	%r14d, 32(%rbx)
	movq	%r13, %rsi
	movq	%rbp, %rdi
	movq	%r15, %rdx
.LEHB58:
	call	_ZStplIcSt11char_traitsIcESaIcEENSt7__cxx1112basic_stringIT_T0_T1_EERKS8_SA_
	movq	%r15, %rdi
	movq	%rbp, %rsi
	call	_ZNSt7__cxx1112basic_stringIcSt11char_traitsIcESaIcEEaSEOS4_@PLT
	movq	368(%rsp), %rdi
	leaq	16(%rbp), %rax
	cmpq	%rax, %rdi
	je	.L1008
	call	_ZdlPv@PLT
.L1008:
	movq	(%rbx), %rsi
	movq	8(%rbx), %rdx
	leaq	176(%rsp), %rcx
	leaq	192(%rsp), %rax
	movq	%rcx, 40(%rsp)
	movq	%rcx, %rdi
	addq	%rsi, %rdx
	testl	%r14d, %r14d
	movq	%rax, 176(%rsp)
	movq	%rcx, %r14
	je	.L1248
	call	_ZNSt7__cxx1112basic_stringIcSt11char_traitsIcESaIcEE12_M_constructIPcEEvT_S7_St20forward_iterator_tag.isra.160
.LEHE58:
	leaq	272(%rsp), %r15
	xorl	%edx, %edx
	movq	%r14, %rsi
	movq	%r15, %rdi
.LEHB59:
	call	_ZN2ir7OperandC1ENSt7__cxx1112basic_stringIcSt11char_traitsIcESaIcEEENS_4TypeE@PLT
.LEHE59:
	leaq	208(%rsp), %rax
	leaq	.LC16(%rip), %rsi
	movq	%rax, %rdi
	movq	%rax, %r14
	movq	%rax, 48(%rsp)
.LEHB60:
	call	_ZNSt7__cxx1112basic_stringIcSt11char_traitsIcESaIcEEC2EPKcRKS3_.isra.148
.LEHE60:
	leaq	320(%rsp), %r12
	movl	$6, %edx
	movq	%r14, %rsi
	movq	%r12, %rdi
.LEHB61:
	call	_ZN2ir7OperandC1ENSt7__cxx1112basic_stringIcSt11char_traitsIcESaIcEEENS_4TypeE@PLT
.LEHE61:
	leaq	240(%rsp), %r14
	movq	144(%rsp), %rsi
	movq	152(%rsp), %rdx
	leaq	16(%r14), %rax
	movq	%r14, %rdi
	addq	%rsi, %rdx
	movq	%rax, 240(%rsp)
.LEHB62:
	call	_ZNSt7__cxx1112basic_stringIcSt11char_traitsIcESaIcEE12_M_constructIPcEEvT_S7_St20forward_iterator_tag.isra.160
.LEHE62:
	movl	$1, %edx
	movq	%r14, %rsi
	movq	%rbp, %rdi
.LEHB63:
	call	_ZN2ir7OperandC1ENSt7__cxx1112basic_stringIcSt11char_traitsIcESaIcEEENS_4TypeE@PLT
.LEHE63:
	movl	$136, %edi
	movl	$11, 68(%rsp)
.LEHB64:
	call	_Znwm@PLT
.LEHE64:
	leaq	68(%rsp), %r8
	movq	%rbp, %rcx
	movq	%r12, %rdx
	movq	%r15, %rsi
	movq	%rax, %rdi
	movq	%rax, 56(%rsp)
.LEHB65:
	call	_ZN2ir11InstructionC1ERKNS_7OperandES3_S3_RKNS_8OperatorE@PLT
.LEHE65:
	movq	56(%rsp), %rax
	movq	24(%rsp), %rdi
	leaq	72(%rsp), %rsi
	movq	%rax, 72(%rsp)
.LEHB66:
	call	_ZNSt6vectorIPN2ir11InstructionESaIS2_EE12emplace_backIJS2_EEEvDpOT_
.LEHE66:
.L1238:
	movq	368(%rsp), %rdi
	addq	$16, %rbp
	cmpq	%rbp, %rdi
	je	.L1010
	call	_ZdlPv@PLT
.L1010:
	movq	240(%rsp), %rdi
	addq	$16, %r14
	cmpq	%r14, %rdi
	je	.L1011
	call	_ZdlPv@PLT
.L1011:
	movq	320(%rsp), %rdi
	addq	$16, %r12
	cmpq	%r12, %rdi
	je	.L1012
	call	_ZdlPv@PLT
.L1012:
	movq	48(%rsp), %rax
	movq	208(%rsp), %rdi
	addq	$16, %rax
	cmpq	%rax, %rdi
	je	.L1013
	call	_ZdlPv@PLT
.L1013:
	movq	272(%rsp), %rdi
	addq	$16, %r15
	cmpq	%r15, %rdi
	je	.L1014
	call	_ZdlPv@PLT
.L1014:
	movq	40(%rsp), %rax
	movq	176(%rsp), %rdi
	addq	$16, %rax
	cmpq	%rax, %rdi
	je	.L1015
	call	_ZdlPv@PLT
.L1015:
	movq	16(%rsp), %rsi
	movq	%rbx, %rdi
.LEHB67:
	call	_ZNSt7__cxx1112basic_stringIcSt11char_traitsIcESaIcEE9_M_assignERKS4_@PLT
.L1023:
	movq	8(%rsp), %rdi
	movq	%rbx, %rsi
	call	_ZN2ir7OperandC1ERKS0_@PLT
.LEHE67:
.L987:
	movq	16(%rsp), %rax
	movq	144(%rsp), %rdi
	addq	$16, %rax
	cmpq	%rax, %rdi
	je	.L1024
	call	_ZdlPv@PLT
.L1024:
	movq	32(%rsp), %rax
	movq	112(%rsp), %rdi
	addq	$16, %rax
	cmpq	%rax, %rdi
	je	.L1025
	call	_ZdlPv@PLT
.L1025:
	movq	80(%rsp), %rdi
	addq	$16, %r13
	cmpq	%r13, %rdi
	je	.L967
.L1174:
	call	_ZdlPv@PLT
.L967:
	movq	408(%rsp), %rcx
	xorq	%fs:40, %rcx
	movq	8(%rsp), %rax
	jne	.L1249
	addq	$424, %rsp
	.cfi_remember_state
	.cfi_def_cfa_offset 56
	popq	%rbx
	.cfi_def_cfa_offset 48
	popq	%rbp
	.cfi_def_cfa_offset 40
	popq	%r12
	.cfi_def_cfa_offset 32
	popq	%r13
	.cfi_def_cfa_offset 24
	popq	%r14
	.cfi_def_cfa_offset 16
	popq	%r15
	.cfi_def_cfa_offset 8
	ret
	.p2align 4,,10
	.p2align 3
.L1241:
	.cfi_restore_state
	cmpl	$2, %ecx
	jne	.L971
	leaq	320(%rsp), %r12
	movq	(%rdx), %rsi
	movq	8(%rdx), %rdx
	leaq	16(%r12), %rax
	movq	%r12, %rdi
	addq	%rsi, %rdx
	movq	%rax, 320(%rsp)
.LEHB68:
	call	_ZNSt7__cxx1112basic_stringIcSt11char_traitsIcESaIcEE12_M_constructIPcEEvT_S7_St20forward_iterator_tag.isra.160
.LEHE68:
	movq	%r12, %rdi
.LEHB69:
	call	_ZN8frontend7evalIntENSt7__cxx1112basic_stringIcSt11char_traitsIcESaIcEEE@PLT
	leaq	368(%rsp), %rbp
	movq	vsnprintf@GOTPCREL(%rip), %rsi
	leaq	.LC5(%rip), %rcx
	movl	%eax, %r8d
	movl	$16, %edx
	xorl	%eax, %eax
	movq	%rbp, %rdi
	call	_ZN9__gnu_cxx12__to_xstringINSt7__cxx1112basic_stringIcSt11char_traitsIcESaIcEEEcEET_PFiPT0_mPKS8_P13__va_list_tagEmSB_z.constprop.314
.LEHE69:
	movq	8(%rsp), %rdi
	movl	$2, %edx
	movq	%rbp, %rsi
.LEHB70:
	call	_ZN2ir7OperandC1ENSt7__cxx1112basic_stringIcSt11char_traitsIcESaIcEEENS_4TypeE@PLT
.LEHE70:
	jmp	.L1204
	.p2align 4,,10
	.p2align 3
.L1240:
	cmpl	$3, %ecx
	jne	.L971
	leaq	320(%rsp), %r12
	movq	(%rdx), %rsi
	movq	8(%rdx), %rdx
	leaq	16(%r12), %rax
	movq	%r12, %rdi
	addq	%rsi, %rdx
	movq	%rax, 320(%rsp)
.LEHB71:
	call	_ZNSt7__cxx1112basic_stringIcSt11char_traitsIcESaIcEE12_M_constructIPcEEvT_S7_St20forward_iterator_tag.isra.160
.LEHE71:
	movq	%r12, %rdi
.LEHB72:
	call	_ZN8frontend9evalFloatENSt7__cxx1112basic_stringIcSt11char_traitsIcESaIcEEE@PLT
	leaq	368(%rsp), %rbp
	movq	vsnprintf@GOTPCREL(%rip), %rsi
	cvtss2sd	%xmm0, %xmm0
	leaq	.LC8(%rip), %rcx
	movl	$58, %edx
	movl	$1, %eax
	movq	%rbp, %rdi
	call	_ZN9__gnu_cxx12__to_xstringINSt7__cxx1112basic_stringIcSt11char_traitsIcESaIcEEEcEET_PFiPT0_mPKS8_P13__va_list_tagEmSB_z.constprop.314
.LEHE72:
	movq	8(%rsp), %rdi
	movl	$3, %edx
	movq	%rbp, %rsi
.LEHB73:
	call	_ZN2ir7OperandC1ENSt7__cxx1112basic_stringIcSt11char_traitsIcESaIcEEENS_4TypeE@PLT
.LEHE73:
.L1204:
	movq	368(%rsp), %rdi
	addq	$16, %rbp
	cmpq	%rbp, %rdi
	je	.L975
	call	_ZdlPv@PLT
.L975:
	movq	320(%rsp), %rdi
	addq	$16, %r12
	cmpq	%r12, %rdi
	jne	.L1174
	jmp	.L967
	.p2align 4,,10
	.p2align 3
.L1248:
.LEHB74:
	call	_ZNSt7__cxx1112basic_stringIcSt11char_traitsIcESaIcEE12_M_constructIPcEEvT_S7_St20forward_iterator_tag.isra.160
.LEHE74:
	leaq	272(%rsp), %r15
	movl	$1, %edx
	movq	%r14, %rsi
	movq	%r15, %rdi
.LEHB75:
	call	_ZN2ir7OperandC1ENSt7__cxx1112basic_stringIcSt11char_traitsIcESaIcEEENS_4TypeE@PLT
.LEHE75:
	leaq	208(%rsp), %rax
	leaq	.LC16(%rip), %rsi
	movq	%rax, %rdi
	movq	%rax, %r14
	movq	%rax, 48(%rsp)
.LEHB76:
	call	_ZNSt7__cxx1112basic_stringIcSt11char_traitsIcESaIcEEC2EPKcRKS3_.isra.148
.LEHE76:
	leaq	320(%rsp), %r12
	movl	$6, %edx
	movq	%r14, %rsi
	movq	%r12, %rdi
.LEHB77:
	call	_ZN2ir7OperandC1ENSt7__cxx1112basic_stringIcSt11char_traitsIcESaIcEEENS_4TypeE@PLT
.LEHE77:
	leaq	240(%rsp), %r14
	movq	144(%rsp), %rsi
	movq	152(%rsp), %rdx
	leaq	16(%r14), %rax
	movq	%r14, %rdi
	addq	%rsi, %rdx
	movq	%rax, 240(%rsp)
.LEHB78:
	call	_ZNSt7__cxx1112basic_stringIcSt11char_traitsIcESaIcEE12_M_constructIPcEEvT_S7_St20forward_iterator_tag.isra.160
.LEHE78:
	xorl	%edx, %edx
	movq	%r14, %rsi
	movq	%rbp, %rdi
.LEHB79:
	call	_ZN2ir7OperandC1ENSt7__cxx1112basic_stringIcSt11char_traitsIcESaIcEEENS_4TypeE@PLT
.LEHE79:
	movl	$136, %edi
	movl	$12, 68(%rsp)
.LEHB80:
	call	_Znwm@PLT
.LEHE80:
	leaq	68(%rsp), %r8
	movq	%rbp, %rcx
	movq	%r12, %rdx
	movq	%r15, %rsi
	movq	%rax, %rdi
	movq	%rax, 56(%rsp)
.LEHB81:
	call	_ZN2ir11InstructionC1ERKNS_7OperandES3_S3_RKNS_8OperatorE@PLT
.LEHE81:
	movq	56(%rsp), %rax
	movq	24(%rsp), %rdi
	leaq	72(%rsp), %rsi
	movq	%rax, 72(%rsp)
.LEHB82:
	call	_ZNSt6vectorIPN2ir11InstructionESaIS2_EE12emplace_backIJS2_EEEvDpOT_
.LEHE82:
	jmp	.L1238
	.p2align 4,,10
	.p2align 3
.L1239:
	movq	%rdx, %rsi
.LEHB83:
	call	_ZN2ir7OperandC1ERKS0_@PLT
.LEHE83:
	jmp	.L967
	.p2align 4,,10
	.p2align 3
.L1244:
	leaq	368(%rsp), %rbp
	movq	144(%rsp), %rsi
	movq	152(%rsp), %rdx
	leaq	16(%rbp), %rax
	movq	%rbp, %rdi
	addq	%rsi, %rdx
	movq	%rax, 368(%rsp)
.LEHB84:
	call	_ZNSt7__cxx1112basic_stringIcSt11char_traitsIcESaIcEE12_M_constructIPcEEvT_S7_St20forward_iterator_tag.isra.160
.LEHE84:
	leaq	320(%rsp), %r12
	movl	%r14d, %edx
	movq	%rbp, %rsi
	movq	%r12, %rdi
.LEHB85:
	call	_ZN2ir7OperandC1ENSt7__cxx1112basic_stringIcSt11char_traitsIcESaIcEEENS_4TypeE@PLT
.LEHE85:
	movq	368(%rsp), %rdi
	leaq	16(%rbp), %rax
	cmpq	%rax, %rdi
	je	.L979
	call	_ZdlPv@PLT
.L979:
	leaq	272(%rsp), %r15
	cmpl	$1, %r14d
	leaq	.LC16(%rip), %rsi
	movq	%r15, %rdi
	je	.L1250
.LEHB86:
	call	_ZNSt7__cxx1112basic_stringIcSt11char_traitsIcESaIcEEC2EPKcRKS3_.isra.148
.LEHE86:
	movl	$6, %edx
	movq	%r15, %rsi
	movq	%rbp, %rdi
.LEHB87:
	call	_ZN2ir7OperandC1ENSt7__cxx1112basic_stringIcSt11char_traitsIcESaIcEEENS_4TypeE@PLT
.LEHE87:
	movl	$136, %edi
	movl	$7, 68(%rsp)
.LEHB88:
	call	_Znwm@PLT
.LEHE88:
	leaq	68(%rsp), %r8
	movq	%r12, %rcx
	movq	%rbp, %rdx
	movq	%rbx, %rsi
	movq	%rax, %rdi
	movq	%rax, %r14
.LEHB89:
	call	_ZN2ir11InstructionC1ERKNS_7OperandES3_S3_RKNS_8OperatorE@PLT
.LEHE89:
	movq	24(%rsp), %rdi
	leaq	72(%rsp), %rsi
	movq	%r14, 72(%rsp)
.LEHB90:
	call	_ZNSt6vectorIPN2ir11InstructionESaIS2_EE12emplace_backIJS2_EEEvDpOT_
.LEHE90:
.L1206:
	movq	368(%rsp), %rdi
	addq	$16, %rbp
	cmpq	%rbp, %rdi
	je	.L984
	call	_ZdlPv@PLT
.L984:
	movq	272(%rsp), %rdi
	addq	$16, %r15
	cmpq	%r15, %rdi
	je	.L983
	call	_ZdlPv@PLT
.L983:
	movq	8(%rsp), %rdi
	movq	%r12, %rsi
.LEHB91:
	call	_ZN2ir7OperandC1ERKS0_@PLT
.LEHE91:
.L1178:
	movq	320(%rsp), %rdi
	addq	$16, %r12
	cmpq	%r12, %rdi
	je	.L987
	call	_ZdlPv@PLT
	jmp	.L987
	.p2align 4,,10
	.p2align 3
.L1245:
	leaq	368(%rsp), %rbp
	movq	144(%rsp), %rsi
	movq	152(%rsp), %rdx
	leaq	16(%rbp), %rax
	movq	%rbp, %rdi
	addq	%rsi, %rdx
	movq	%rax, 368(%rsp)
.LEHB92:
	call	_ZNSt7__cxx1112basic_stringIcSt11char_traitsIcESaIcEE12_M_constructIPcEEvT_S7_St20forward_iterator_tag.isra.160
.LEHE92:
	leaq	320(%rsp), %r12
	movl	%r14d, %edx
	movq	%rbp, %rsi
	movq	%r12, %rdi
.LEHB93:
	call	_ZN2ir7OperandC1ENSt7__cxx1112basic_stringIcSt11char_traitsIcESaIcEEENS_4TypeE@PLT
.LEHE93:
	movq	368(%rsp), %rdi
	leaq	16(%rbp), %rax
	cmpq	%rax, %rdi
	je	.L989
	call	_ZdlPv@PLT
.L989:
	testl	%r14d, %r14d
	jne	.L990
	leaq	272(%rsp), %r15
	leaq	.LC16(%rip), %rsi
	movq	%r15, %rdi
.LEHB94:
	call	_ZNSt7__cxx1112basic_stringIcSt11char_traitsIcESaIcEEC2EPKcRKS3_.isra.148
.LEHE94:
	movl	$6, %edx
	movq	%r15, %rsi
	movq	%rbp, %rdi
.LEHB95:
	call	_ZN2ir7OperandC1ENSt7__cxx1112basic_stringIcSt11char_traitsIcESaIcEEENS_4TypeE@PLT
.LEHE95:
	movl	$136, %edi
	movl	$12, 68(%rsp)
.LEHB96:
	call	_Znwm@PLT
.LEHE96:
	leaq	68(%rsp), %r8
	movq	%r12, %rcx
	movq	%rbp, %rdx
	movq	%rbx, %rsi
	movq	%rax, %rdi
	movq	%rax, %r14
.LEHB97:
	call	_ZN2ir11InstructionC1ERKNS_7OperandES3_S3_RKNS_8OperatorE@PLT
.LEHE97:
	movq	24(%rsp), %rdi
	leaq	72(%rsp), %rsi
	movq	%r14, 72(%rsp)
.LEHB98:
	call	_ZNSt6vectorIPN2ir11InstructionESaIS2_EE12emplace_backIJS2_EEEvDpOT_
.LEHE98:
.L1208:
	movq	368(%rsp), %rdi
	addq	$16, %rbp
	cmpq	%rbp, %rdi
	je	.L994
	call	_ZdlPv@PLT
.L994:
	movq	272(%rsp), %rdi
	addq	$16, %r15
	cmpq	%r15, %rdi
	je	.L993
	call	_ZdlPv@PLT
.L993:
	movq	8(%rsp), %rdi
	movq	%r12, %rsi
.LEHB99:
	call	_ZN2ir7OperandC1ERKS0_@PLT
.LEHE99:
	jmp	.L1178
	.p2align 4,,10
	.p2align 3
.L1246:
	leaq	368(%rsp), %rbp
	movq	144(%rsp), %rsi
	movq	152(%rsp), %rdx
	leaq	16(%rbp), %rax
	movq	%rbp, %rdi
	addq	%rsi, %rdx
	movq	%rax, 368(%rsp)
.LEHB100:
	call	_ZNSt7__cxx1112basic_stringIcSt11char_traitsIcESaIcEE12_M_constructIPcEEvT_S7_St20forward_iterator_tag.isra.160
.LEHE100:
	leaq	320(%rsp), %r12
	xorl	%edx, %edx
	movq	%rbp, %rsi
	movq	%r12, %rdi
.LEHB101:
	call	_ZN2ir7OperandC1ENSt7__cxx1112basic_stringIcSt11char_traitsIcESaIcEEENS_4TypeE@PLT
.LEHE101:
	movq	368(%rsp), %rdi
	leaq	16(%rbp), %rax
	cmpq	%rax, %rdi
	je	.L998
	call	_ZdlPv@PLT
.L998:
	leaq	272(%rsp), %r15
	leaq	.LC18(%rip), %rsi
	movq	%r15, %rdi
.LEHB102:
	call	_ZNSt7__cxx1112basic_stringIcSt11char_traitsIcESaIcEEC2EPKcRKS3_.isra.148
.LEHE102:
	movl	$2, %edx
	movq	%r15, %rsi
	movq	%rbp, %rdi
.LEHB103:
	call	_ZN2ir7OperandC1ENSt7__cxx1112basic_stringIcSt11char_traitsIcESaIcEEENS_4TypeE@PLT
.LEHE103:
	movq	272(%rsp), %rdi
	addq	$16, %r15
	cmpq	%r15, %rdi
	je	.L999
	call	_ZdlPv@PLT
.L999:
	movl	$136, %edi
	movl	$5, 68(%rsp)
.LEHB104:
	call	_Znwm@PLT
.LEHE104:
	leaq	68(%rsp), %r8
	movq	%r12, %rcx
	movq	%rbp, %rdx
	movq	%rbx, %rsi
	movq	%rax, %rdi
	movq	%rax, %r15
.LEHB105:
	call	_ZN2ir11InstructionC1ERKNS_7OperandES3_S3_RKNS_8OperatorE@PLT
.LEHE105:
	movq	24(%rsp), %rdi
	leaq	72(%rsp), %rsi
	movq	%r15, 72(%rsp)
.LEHB106:
	call	_ZNSt6vectorIPN2ir11InstructionESaIS2_EE12emplace_backIJS2_EEEvDpOT_
	movq	16(%rsp), %rsi
	movq	%rbx, %rdi
	call	_ZNSt7__cxx1112basic_stringIcSt11char_traitsIcESaIcEE9_M_assignERKS4_@PLT
.LEHE106:
	movl	$0, 32(%rbx)
	movq	368(%rsp), %rdi
	addq	$16, %rbp
	cmpq	%rbp, %rdi
	je	.L1005
.L1209:
	call	_ZdlPv@PLT
.L1005:
	movq	320(%rsp), %rdi
	addq	$16, %r12
	cmpq	%r12, %rdi
	je	.L1006
	call	_ZdlPv@PLT
.L1006:
	movl	32(%rbx), %eax
	jmp	.L1002
	.p2align 4,,10
	.p2align 3
.L1247:
	leaq	368(%rsp), %rbp
	movq	144(%rsp), %rsi
	movq	152(%rsp), %rdx
	leaq	16(%rbp), %rax
	movq	%rbp, %rdi
	addq	%rsi, %rdx
	movq	%rax, 368(%rsp)
.LEHB107:
	call	_ZNSt7__cxx1112basic_stringIcSt11char_traitsIcESaIcEE12_M_constructIPcEEvT_S7_St20forward_iterator_tag.isra.160
.LEHE107:
	leaq	320(%rsp), %r12
	movl	$1, %edx
	movq	%rbp, %rsi
	movq	%r12, %rdi
.LEHB108:
	call	_ZN2ir7OperandC1ENSt7__cxx1112basic_stringIcSt11char_traitsIcESaIcEEENS_4TypeE@PLT
.LEHE108:
	movq	368(%rsp), %rdi
	leaq	16(%rbp), %rax
	cmpq	%rax, %rdi
	je	.L1003
	call	_ZdlPv@PLT
.L1003:
	leaq	272(%rsp), %r15
	leaq	.LC18(%rip), %rsi
	movq	%r15, %rdi
.LEHB109:
	call	_ZNSt7__cxx1112basic_stringIcSt11char_traitsIcESaIcEEC2EPKcRKS3_.isra.148
.LEHE109:
	movl	$2, %edx
	movq	%r15, %rsi
	movq	%rbp, %rdi
.LEHB110:
	call	_ZN2ir7OperandC1ENSt7__cxx1112basic_stringIcSt11char_traitsIcESaIcEEENS_4TypeE@PLT
.LEHE110:
	movq	272(%rsp), %rdi
	addq	$16, %r15
	cmpq	%r15, %rdi
	je	.L1004
	call	_ZdlPv@PLT
.L1004:
	movl	$136, %edi
	movl	$5, 68(%rsp)
.LEHB111:
	call	_Znwm@PLT
.LEHE111:
	leaq	68(%rsp), %r8
	movq	%r12, %rcx
	movq	%rbp, %rdx
	movq	%rbx, %rsi
	movq	%rax, %rdi
	movq	%rax, %r15
.LEHB112:
	call	_ZN2ir11InstructionC1ERKNS_7OperandES3_S3_RKNS_8OperatorE@PLT
.LEHE112:
	movq	24(%rsp), %rdi
	leaq	72(%rsp), %rsi
	movq	%r15, 72(%rsp)
.LEHB113:
	call	_ZNSt6vectorIPN2ir11InstructionESaIS2_EE12emplace_backIJS2_EEEvDpOT_
	movq	16(%rsp), %rsi
	movq	%rbx, %rdi
	call	_ZNSt7__cxx1112basic_stringIcSt11char_traitsIcESaIcEE9_M_assignERKS4_@PLT
.LEHE113:
	movl	$1, 32(%rbx)
	movq	368(%rsp), %rdi
	addq	$16, %rbp
	cmpq	%rbp, %rdi
	jne	.L1209
	jmp	.L1005
	.p2align 4,,10
	.p2align 3
.L990:
	leaq	.LC17(%rip), %rsi
	leaq	_ZSt4cout(%rip), %rdi
	movl	$15, %edx
.LEHB114:
	call	_ZSt16__ostream_insertIcSt11char_traitsIcEERSt13basic_ostreamIT_T0_ES6_PKS3_l@PLT
	movq	8(%rbx), %rdx
	movq	(%rbx), %rsi
	leaq	_ZSt4cout(%rip), %rdi
	call	_ZSt16__ostream_insertIcSt11char_traitsIcEERSt13basic_ostreamIT_T0_ES6_PKS3_l@PLT
	movq	%rax, %rdi
	call	_ZSt4endlIcSt11char_traitsIcEERSt13basic_ostreamIT_T0_ES6_@PLT
	leaq	272(%rsp), %r15
	leaq	.LC16(%rip), %rsi
	movq	%r15, %rdi
	call	_ZNSt7__cxx1112basic_stringIcSt11char_traitsIcESaIcEEC2EPKcRKS3_.isra.148
.LEHE114:
	movl	$6, %edx
	movq	%r15, %rsi
	movq	%rbp, %rdi
.LEHB115:
	call	_ZN2ir7OperandC1ENSt7__cxx1112basic_stringIcSt11char_traitsIcESaIcEEENS_4TypeE@PLT
.LEHE115:
	movl	$136, %edi
	movl	$8, 68(%rsp)
.LEHB116:
	call	_Znwm@PLT
.LEHE116:
	leaq	68(%rsp), %r8
	movq	%r12, %rcx
	movq	%rbp, %rdx
	movq	%rbx, %rsi
	movq	%rax, %rdi
	movq	%rax, %r14
.LEHB117:
	call	_ZN2ir11InstructionC1ERKNS_7OperandES3_S3_RKNS_8OperatorE@PLT
.LEHE117:
	movq	24(%rsp), %rdi
	leaq	72(%rsp), %rsi
	movq	%r14, 72(%rsp)
.LEHB118:
	call	_ZNSt6vectorIPN2ir11InstructionESaIS2_EE12emplace_backIJS2_EEEvDpOT_
.LEHE118:
	jmp	.L1208
	.p2align 4,,10
	.p2align 3
.L1250:
.LEHB119:
	call	_ZNSt7__cxx1112basic_stringIcSt11char_traitsIcESaIcEEC2EPKcRKS3_.isra.148
.LEHE119:
	movl	$6, %edx
	movq	%r15, %rsi
	movq	%rbp, %rdi
.LEHB120:
	call	_ZN2ir7OperandC1ENSt7__cxx1112basic_stringIcSt11char_traitsIcESaIcEEENS_4TypeE@PLT
.LEHE120:
	movl	$136, %edi
	movl	$11, 68(%rsp)
.LEHB121:
	call	_Znwm@PLT
.LEHE121:
	leaq	68(%rsp), %r8
	movq	%r12, %rcx
	movq	%rbp, %rdx
	movq	%rbx, %rsi
	movq	%rax, %rdi
	movq	%rax, %r14
.LEHB122:
	call	_ZN2ir11InstructionC1ERKNS_7OperandES3_S3_RKNS_8OperatorE@PLT
.LEHE122:
	movq	24(%rsp), %rdi
	leaq	72(%rsp), %rsi
	movq	%r14, 72(%rsp)
.LEHB123:
	call	_ZNSt6vectorIPN2ir11InstructionESaIS2_EE12emplace_backIJS2_EEEvDpOT_
.LEHE123:
	jmp	.L1206
.L1249:
	call	__stack_chk_fail@PLT
.L1242:
	leaq	_ZZN8frontend8Analyzer16castExpectedTypeEN2ir7OperandENS1_4TypeERSt6vectorIPNS1_11InstructionESaIS6_EEE19__PRETTY_FUNCTION__(%rip), %rcx
	leaq	.LC0(%rip), %rsi
	leaq	.LC13(%rip), %rdi
	movl	$1733, %edx
	call	__assert_fail@PLT
.L1243:
	leaq	_ZZN8frontend8Analyzer16castExpectedTypeEN2ir7OperandENS1_4TypeERSt6vectorIPNS1_11InstructionESaIS6_EEE19__PRETTY_FUNCTION__(%rip), %rcx
	leaq	.LC0(%rip), %rsi
	leaq	.LC14(%rip), %rdi
	movl	$1734, %edx
	call	__assert_fail@PLT
.L1122:
.L1225:
	movl	$136, %esi
	movq	%r14, %rdi
	movq	%rax, %rbx
	call	_ZdlPvm@PLT
.L1058:
	movq	368(%rsp), %rdi
	addq	$16, %rbp
	cmpq	%rbp, %rdi
	je	.L1060
	call	_ZdlPv@PLT
.L1060:
	movq	272(%rsp), %rdi
	addq	$16, %r15
	cmpq	%r15, %rdi
	je	.L1076
.L1169:
	call	_ZdlPv@PLT
.L1076:
	movq	320(%rsp), %rdi
	addq	$16, %r12
	cmpq	%r12, %rdi
	je	.L1036
.L1170:
	call	_ZdlPv@PLT
.L1036:
	movq	16(%rsp), %rdx
	movq	144(%rsp), %rdi
	addq	$16, %rdx
	cmpq	%rdx, %rdi
	je	.L1108
	call	_ZdlPv@PLT
.L1108:
	movq	32(%rsp), %rdx
	movq	112(%rsp), %rdi
	addq	$16, %rdx
	cmpq	%rdx, %rdi
	je	.L1110
	call	_ZdlPv@PLT
.L1110:
	movq	80(%rsp), %rdi
	addq	$16, %r13
	cmpq	%r13, %rdi
	je	.L1111
.L1191:
	call	_ZdlPv@PLT
.L1111:
	movq	%rbx, %rdi
.LEHB124:
	call	_Unwind_Resume@PLT
.LEHE124:
.L1121:
.L1224:
	movq	%rax, %rbx
	jmp	.L1058
.L1120:
.L1199:
	movq	%rax, %rbx
	jmp	.L1060
.L1135:
	jmp	.L1225
.L1134:
	jmp	.L1224
.L1133:
	jmp	.L1199
.L1144:
.L1228:
	movl	$136, %esi
	movq	%r15, %rdi
	movq	%rax, %rbx
	call	_ZdlPvm@PLT
.L1078:
	movq	368(%rsp), %rdi
	addq	$16, %rbp
	cmpq	%rbp, %rdi
	jne	.L1169
	jmp	.L1076
.L1145:
.L1227:
	movq	%rax, %rbx
	jmp	.L1078
.L1141:
.L1185:
	movq	368(%rsp), %rdi
	addq	$16, %rbp
	movq	%rax, %rbx
	cmpq	%rbp, %rdi
	jne	.L1170
	jmp	.L1036
.L1139:
	jmp	.L1228
.L1140:
	jmp	.L1227
.L1137:
	jmp	.L1199
.L1138:
.L1201:
	movq	%rax, %rbx
	jmp	.L1076
.L1142:
	jmp	.L1199
.L1143:
	jmp	.L1201
.L1119:
	jmp	.L1185
.L1127:
	movq	%rax, %rbx
	jmp	.L1036
.L1124:
	jmp	.L1199
.L1123:
	jmp	.L1201
.L1116:
.L1221:
	movq	368(%rsp), %rdi
	addq	$16, %rbp
	movq	%rax, %rbx
	cmpq	%rbp, %rdi
	je	.L1032
	call	_ZdlPv@PLT
.L1032:
	movq	320(%rsp), %rdi
	addq	$16, %r12
	cmpq	%r12, %rdi
	jne	.L1191
	jmp	.L1111
.L1115:
.L1211:
	movq	%rax, %rbx
	jmp	.L1032
.L1114:
	jmp	.L1221
.L1113:
	jmp	.L1211
.L1136:
	jmp	.L1185
.L1131:
	jmp	.L1225
.L1130:
	jmp	.L1224
.L1129:
	jmp	.L1199
.L1132:
	jmp	.L1201
.L1128:
	jmp	.L1185
.L1126:
	jmp	.L1225
.L1125:
	jmp	.L1224
.L1152:
	movq	56(%rsp), %rdi
	movl	$136, %esi
	movq	%rax, %rbx
	call	_ZdlPvm@PLT
.L1082:
	movq	368(%rsp), %rdi
	addq	$16, %rbp
	cmpq	%rbp, %rdi
	je	.L1084
	call	_ZdlPv@PLT
.L1084:
	movq	240(%rsp), %rdi
	addq	$16, %r14
	cmpq	%r14, %rdi
	je	.L1086
	call	_ZdlPv@PLT
.L1086:
	movq	320(%rsp), %rdi
	addq	$16, %r12
	cmpq	%r12, %rdi
	je	.L1088
	call	_ZdlPv@PLT
.L1088:
	movq	48(%rsp), %rax
	movq	208(%rsp), %rdi
	addq	$16, %rax
	cmpq	%rax, %rdi
	je	.L1090
	call	_ZdlPv@PLT
.L1090:
	movq	272(%rsp), %rdi
	addq	$16, %r15
	cmpq	%r15, %rdi
	je	.L1092
	call	_ZdlPv@PLT
.L1092:
	movq	40(%rsp), %rax
	movq	176(%rsp), %rdi
	addq	$16, %rax
	cmpq	%rax, %rdi
	jne	.L1170
	jmp	.L1036
.L1151:
	movq	%rax, %rbx
	jmp	.L1082
.L1150:
	movq	%rax, %rbx
	jmp	.L1084
.L1149:
	movq	%rax, %rbx
	jmp	.L1086
.L1148:
	movq	%rax, %rbx
	jmp	.L1088
.L1147:
	movq	%rax, %rbx
	jmp	.L1090
.L1146:
	movq	%rax, %rbx
	jmp	.L1092
.L1159:
	movq	56(%rsp), %rdi
	movl	$136, %esi
	movq	%rax, %rbx
	call	_ZdlPvm@PLT
.L1095:
	movq	368(%rsp), %rdi
	addq	$16, %rbp
	cmpq	%rbp, %rdi
	je	.L1097
	call	_ZdlPv@PLT
.L1097:
	movq	240(%rsp), %rdi
	addq	$16, %r14
	cmpq	%r14, %rdi
	je	.L1099
	call	_ZdlPv@PLT
.L1099:
	movq	320(%rsp), %rdi
	addq	$16, %r12
	cmpq	%r12, %rdi
	je	.L1101
	call	_ZdlPv@PLT
.L1101:
	movq	48(%rsp), %rdx
	movq	208(%rsp), %rdi
	addq	$16, %rdx
	cmpq	%rdx, %rdi
	je	.L1103
	call	_ZdlPv@PLT
.L1103:
	movq	272(%rsp), %rdi
	addq	$16, %r15
	cmpq	%r15, %rdi
	je	.L1105
	call	_ZdlPv@PLT
.L1105:
	movq	40(%rsp), %rdx
	movq	176(%rsp), %rdi
	addq	$16, %rdx
	cmpq	%rdx, %rdi
	jne	.L1170
	jmp	.L1036
.L1158:
	movq	%rax, %rbx
	jmp	.L1095
.L1157:
	movq	%rax, %rbx
	jmp	.L1097
.L1156:
	movq	%rax, %rbx
	jmp	.L1099
.L1155:
	movq	%rax, %rbx
	jmp	.L1101
.L1154:
	movq	%rax, %rbx
	jmp	.L1103
.L1153:
	movq	%rax, %rbx
	jmp	.L1105
.L1117:
	movq	%rax, %rbx
	jmp	.L1110
.L1118:
	movq	%rax, %rbx
	jmp	.L1108
	.cfi_endproc
.LFE3710:
	.section	.gcc_except_table
.LLSDA3710:
	.byte	0xff
	.byte	0xff
	.byte	0x1
	.uleb128 .LLSDACSE3710-.LLSDACSB3710
.LLSDACSB3710:
	.uleb128 .LEHB55-.LFB3710
	.uleb128 .LEHE55-.LEHB55
	.uleb128 0
	.uleb128 0
	.uleb128 .LEHB56-.LFB3710
	.uleb128 .LEHE56-.LEHB56
	.uleb128 .L1117-.LFB3710
	.uleb128 0
	.uleb128 .LEHB57-.LFB3710
	.uleb128 .LEHE57-.LEHB57
	.uleb128 .L1118-.LFB3710
	.uleb128 0
	.uleb128 .LEHB58-.LFB3710
	.uleb128 .LEHE58-.LEHB58
	.uleb128 .L1127-.LFB3710
	.uleb128 0
	.uleb128 .LEHB59-.LFB3710
	.uleb128 .LEHE59-.LEHB59
	.uleb128 .L1153-.LFB3710
	.uleb128 0
	.uleb128 .LEHB60-.LFB3710
	.uleb128 .LEHE60-.LEHB60
	.uleb128 .L1154-.LFB3710
	.uleb128 0
	.uleb128 .LEHB61-.LFB3710
	.uleb128 .LEHE61-.LEHB61
	.uleb128 .L1155-.LFB3710
	.uleb128 0
	.uleb128 .LEHB62-.LFB3710
	.uleb128 .LEHE62-.LEHB62
	.uleb128 .L1156-.LFB3710
	.uleb128 0
	.uleb128 .LEHB63-.LFB3710
	.uleb128 .LEHE63-.LEHB63
	.uleb128 .L1157-.LFB3710
	.uleb128 0
	.uleb128 .LEHB64-.LFB3710
	.uleb128 .LEHE64-.LEHB64
	.uleb128 .L1158-.LFB3710
	.uleb128 0
	.uleb128 .LEHB65-.LFB3710
	.uleb128 .LEHE65-.LEHB65
	.uleb128 .L1159-.LFB3710
	.uleb128 0
	.uleb128 .LEHB66-.LFB3710
	.uleb128 .LEHE66-.LEHB66
	.uleb128 .L1158-.LFB3710
	.uleb128 0
	.uleb128 .LEHB67-.LFB3710
	.uleb128 .LEHE67-.LEHB67
	.uleb128 .L1127-.LFB3710
	.uleb128 0
	.uleb128 .LEHB68-.LFB3710
	.uleb128 .LEHE68-.LEHB68
	.uleb128 0
	.uleb128 0
	.uleb128 .LEHB69-.LFB3710
	.uleb128 .LEHE69-.LEHB69
	.uleb128 .L1115-.LFB3710
	.uleb128 0
	.uleb128 .LEHB70-.LFB3710
	.uleb128 .LEHE70-.LEHB70
	.uleb128 .L1116-.LFB3710
	.uleb128 0
	.uleb128 .LEHB71-.LFB3710
	.uleb128 .LEHE71-.LEHB71
	.uleb128 0
	.uleb128 0
	.uleb128 .LEHB72-.LFB3710
	.uleb128 .LEHE72-.LEHB72
	.uleb128 .L1113-.LFB3710
	.uleb128 0
	.uleb128 .LEHB73-.LFB3710
	.uleb128 .LEHE73-.LEHB73
	.uleb128 .L1114-.LFB3710
	.uleb128 0
	.uleb128 .LEHB74-.LFB3710
	.uleb128 .LEHE74-.LEHB74
	.uleb128 .L1127-.LFB3710
	.uleb128 0
	.uleb128 .LEHB75-.LFB3710
	.uleb128 .LEHE75-.LEHB75
	.uleb128 .L1146-.LFB3710
	.uleb128 0
	.uleb128 .LEHB76-.LFB3710
	.uleb128 .LEHE76-.LEHB76
	.uleb128 .L1147-.LFB3710
	.uleb128 0
	.uleb128 .LEHB77-.LFB3710
	.uleb128 .LEHE77-.LEHB77
	.uleb128 .L1148-.LFB3710
	.uleb128 0
	.uleb128 .LEHB78-.LFB3710
	.uleb128 .LEHE78-.LEHB78
	.uleb128 .L1149-.LFB3710
	.uleb128 0
	.uleb128 .LEHB79-.LFB3710
	.uleb128 .LEHE79-.LEHB79
	.uleb128 .L1150-.LFB3710
	.uleb128 0
	.uleb128 .LEHB80-.LFB3710
	.uleb128 .LEHE80-.LEHB80
	.uleb128 .L1151-.LFB3710
	.uleb128 0
	.uleb128 .LEHB81-.LFB3710
	.uleb128 .LEHE81-.LEHB81
	.uleb128 .L1152-.LFB3710
	.uleb128 0
	.uleb128 .LEHB82-.LFB3710
	.uleb128 .LEHE82-.LEHB82
	.uleb128 .L1151-.LFB3710
	.uleb128 0
	.uleb128 .LEHB83-.LFB3710
	.uleb128 .LEHE83-.LEHB83
	.uleb128 0
	.uleb128 0
	.uleb128 .LEHB84-.LFB3710
	.uleb128 .LEHE84-.LEHB84
	.uleb128 .L1127-.LFB3710
	.uleb128 0
	.uleb128 .LEHB85-.LFB3710
	.uleb128 .LEHE85-.LEHB85
	.uleb128 .L1119-.LFB3710
	.uleb128 0
	.uleb128 .LEHB86-.LFB3710
	.uleb128 .LEHE86-.LEHB86
	.uleb128 .L1123-.LFB3710
	.uleb128 0
	.uleb128 .LEHB87-.LFB3710
	.uleb128 .LEHE87-.LEHB87
	.uleb128 .L1124-.LFB3710
	.uleb128 0
	.uleb128 .LEHB88-.LFB3710
	.uleb128 .LEHE88-.LEHB88
	.uleb128 .L1125-.LFB3710
	.uleb128 0
	.uleb128 .LEHB89-.LFB3710
	.uleb128 .LEHE89-.LEHB89
	.uleb128 .L1126-.LFB3710
	.uleb128 0
	.uleb128 .LEHB90-.LFB3710
	.uleb128 .LEHE90-.LEHB90
	.uleb128 .L1125-.LFB3710
	.uleb128 0
	.uleb128 .LEHB91-.LFB3710
	.uleb128 .LEHE91-.LEHB91
	.uleb128 .L1123-.LFB3710
	.uleb128 0
	.uleb128 .LEHB92-.LFB3710
	.uleb128 .LEHE92-.LEHB92
	.uleb128 .L1127-.LFB3710
	.uleb128 0
	.uleb128 .LEHB93-.LFB3710
	.uleb128 .LEHE93-.LEHB93
	.uleb128 .L1128-.LFB3710
	.uleb128 0
	.uleb128 .LEHB94-.LFB3710
	.uleb128 .LEHE94-.LEHB94
	.uleb128 .L1132-.LFB3710
	.uleb128 0
	.uleb128 .LEHB95-.LFB3710
	.uleb128 .LEHE95-.LEHB95
	.uleb128 .L1129-.LFB3710
	.uleb128 0
	.uleb128 .LEHB96-.LFB3710
	.uleb128 .LEHE96-.LEHB96
	.uleb128 .L1130-.LFB3710
	.uleb128 0
	.uleb128 .LEHB97-.LFB3710
	.uleb128 .LEHE97-.LEHB97
	.uleb128 .L1131-.LFB3710
	.uleb128 0
	.uleb128 .LEHB98-.LFB3710
	.uleb128 .LEHE98-.LEHB98
	.uleb128 .L1130-.LFB3710
	.uleb128 0
	.uleb128 .LEHB99-.LFB3710
	.uleb128 .LEHE99-.LEHB99
	.uleb128 .L1132-.LFB3710
	.uleb128 0
	.uleb128 .LEHB100-.LFB3710
	.uleb128 .LEHE100-.LEHB100
	.uleb128 .L1127-.LFB3710
	.uleb128 0
	.uleb128 .LEHB101-.LFB3710
	.uleb128 .LEHE101-.LEHB101
	.uleb128 .L1136-.LFB3710
	.uleb128 0
	.uleb128 .LEHB102-.LFB3710
	.uleb128 .LEHE102-.LEHB102
	.uleb128 .L1138-.LFB3710
	.uleb128 0
	.uleb128 .LEHB103-.LFB3710
	.uleb128 .LEHE103-.LEHB103
	.uleb128 .L1137-.LFB3710
	.uleb128 0
	.uleb128 .LEHB104-.LFB3710
	.uleb128 .LEHE104-.LEHB104
	.uleb128 .L1140-.LFB3710
	.uleb128 0
	.uleb128 .LEHB105-.LFB3710
	.uleb128 .LEHE105-.LEHB105
	.uleb128 .L1139-.LFB3710
	.uleb128 0
	.uleb128 .LEHB106-.LFB3710
	.uleb128 .LEHE106-.LEHB106
	.uleb128 .L1140-.LFB3710
	.uleb128 0
	.uleb128 .LEHB107-.LFB3710
	.uleb128 .LEHE107-.LEHB107
	.uleb128 .L1127-.LFB3710
	.uleb128 0
	.uleb128 .LEHB108-.LFB3710
	.uleb128 .LEHE108-.LEHB108
	.uleb128 .L1141-.LFB3710
	.uleb128 0
	.uleb128 .LEHB109-.LFB3710
	.uleb128 .LEHE109-.LEHB109
	.uleb128 .L1143-.LFB3710
	.uleb128 0
	.uleb128 .LEHB110-.LFB3710
	.uleb128 .LEHE110-.LEHB110
	.uleb128 .L1142-.LFB3710
	.uleb128 0
	.uleb128 .LEHB111-.LFB3710
	.uleb128 .LEHE111-.LEHB111
	.uleb128 .L1145-.LFB3710
	.uleb128 0
	.uleb128 .LEHB112-.LFB3710
	.uleb128 .LEHE112-.LEHB112
	.uleb128 .L1144-.LFB3710
	.uleb128 0
	.uleb128 .LEHB113-.LFB3710
	.uleb128 .LEHE113-.LEHB113
	.uleb128 .L1145-.LFB3710
	.uleb128 0
	.uleb128 .LEHB114-.LFB3710
	.uleb128 .LEHE114-.LEHB114
	.uleb128 .L1132-.LFB3710
	.uleb128 0
	.uleb128 .LEHB115-.LFB3710
	.uleb128 .LEHE115-.LEHB115
	.uleb128 .L1133-.LFB3710
	.uleb128 0
	.uleb128 .LEHB116-.LFB3710
	.uleb128 .LEHE116-.LEHB116
	.uleb128 .L1134-.LFB3710
	.uleb128 0
	.uleb128 .LEHB117-.LFB3710
	.uleb128 .LEHE117-.LEHB117
	.uleb128 .L1135-.LFB3710
	.uleb128 0
	.uleb128 .LEHB118-.LFB3710
	.uleb128 .LEHE118-.LEHB118
	.uleb128 .L1134-.LFB3710
	.uleb128 0
	.uleb128 .LEHB119-.LFB3710
	.uleb128 .LEHE119-.LEHB119
	.uleb128 .L1123-.LFB3710
	.uleb128 0
	.uleb128 .LEHB120-.LFB3710
	.uleb128 .LEHE120-.LEHB120
	.uleb128 .L1120-.LFB3710
	.uleb128 0
	.uleb128 .LEHB121-.LFB3710
	.uleb128 .LEHE121-.LEHB121
	.uleb128 .L1121-.LFB3710
	.uleb128 0
	.uleb128 .LEHB122-.LFB3710
	.uleb128 .LEHE122-.LEHB122
	.uleb128 .L1122-.LFB3710
	.uleb128 0
	.uleb128 .LEHB123-.LFB3710
	.uleb128 .LEHE123-.LEHB123
	.uleb128 .L1121-.LFB3710
	.uleb128 0
	.uleb128 .LEHB124-.LFB3710
	.uleb128 .LEHE124-.LEHB124
	.uleb128 0
	.uleb128 0
.LLSDACSE3710:
	.text
	.size	_ZN8frontend8Analyzer16castExpectedTypeEN2ir7OperandENS1_4TypeERSt6vectorIPNS1_11InstructionESaIS6_EE, .-_ZN8frontend8Analyzer16castExpectedTypeEN2ir7OperandENS1_4TypeERSt6vectorIPNS1_11InstructionESaIS6_EE
	.section	.rodata.str1.8
	.align 8
.LC19:
	.string	"0 && \"In cumulative Computing: Unexpected opt!\""
	.align 8
.LC20:
	.string	"op2DesType != Type::null && \"Null Type is not Expected!\""
	.text
	.align 2
	.p2align 4,,15
	.globl	_ZN8frontend8Analyzer19cumulativeComputingEN2ir7OperandES2_NS1_8OperatorERSt6vectorIPNS1_11InstructionESaIS6_EE
	.type	_ZN8frontend8Analyzer19cumulativeComputingEN2ir7OperandES2_NS1_8OperatorERSt6vectorIPNS1_11InstructionESaIS6_EE, @function
_ZN8frontend8Analyzer19cumulativeComputingEN2ir7OperandES2_NS1_8OperatorERSt6vectorIPNS1_11InstructionESaIS6_EE:
.LFB3709:
	.cfi_startproc
	.cfi_personality 0x9b,DW.ref.__gxx_personality_v0
	.cfi_lsda 0x1b,.LLSDA3709
	pushq	%r15
	.cfi_def_cfa_offset 16
	.cfi_offset 15, -16
	pushq	%r14
	.cfi_def_cfa_offset 24
	.cfi_offset 14, -24
	movl	%ecx, %eax
	pushq	%r13
	.cfi_def_cfa_offset 32
	.cfi_offset 13, -32
	pushq	%r12
	.cfi_def_cfa_offset 40
	.cfi_offset 12, -40
	pushq	%rbp
	.cfi_def_cfa_offset 48
	.cfi_offset 6, -48
	pushq	%rbx
	.cfi_def_cfa_offset 56
	.cfi_offset 3, -56
	subq	$136, %rsp
	.cfi_def_cfa_offset 192
	movl	%ecx, 12(%rsp)
	movq	%fs:40, %rcx
	movq	%rcx, 120(%rsp)
	xorl	%ecx, %ecx
	leal	-13(%rax), %ecx
	cmpl	$9, %ecx
	ja	.L1252
	movq	%rsi, %rbx
	leaq	.L1254(%rip), %rsi
	movq	%rdi, %r12
	movq	%r8, %rbp
	movl	32(%rdx), %r13d
	movslq	(%rsi,%rcx,4), %rax
	addq	%rsi, %rax
	jmp	*%rax
	.section	.rodata
	.align 4
	.align 4
.L1254:
	.long	.L1253-.L1254
	.long	.L1253-.L1254
	.long	.L1253-.L1254
	.long	.L1255-.L1254
	.long	.L1255-.L1254
	.long	.L1255-.L1254
	.long	.L1256-.L1254
	.long	.L1256-.L1254
	.long	.L1257-.L1254
	.long	.L1257-.L1254
	.text
	.p2align 4,,10
	.p2align 3
.L1256:
	cmpl	$1, %r13d
	je	.L1272
	cmpl	$3, %r13d
	je	.L1272
	xorl	%eax, %eax
	cmpl	$1, 32(%rbx)
	sete	%al
	addl	$19, %eax
	movl	%eax, 12(%rsp)
	jmp	.L1265
	.p2align 4,,10
	.p2align 3
.L1255:
	cmpl	$2, %r13d
	je	.L1267
	cmpl	$3, %r13d
	je	.L1268
	cmpl	$1, %r13d
	je	.L1268
	xorl	%eax, %eax
	cmpl	$1, 32(%rbx)
	sete	%al
	leal	16(%rax,%rax), %eax
	movl	%eax, 12(%rsp)
	jmp	.L1265
	.p2align 4,,10
	.p2align 3
.L1253:
	cmpl	$2, %r13d
	je	.L1259
	cmpl	$3, %r13d
	je	.L1260
	cmpl	$1, %r13d
	je	.L1260
	xorl	%eax, %eax
	cmpl	$1, 32(%rbx)
	sete	%al
	leal	13(%rax,%rax), %eax
	movl	%eax, 12(%rsp)
	jmp	.L1265
	.p2align 4,,10
	.p2align 3
.L1257:
	cmpl	$1, %r13d
	je	.L1275
	cmpl	$3, %r13d
	je	.L1275
	xorl	%eax, %eax
	cmpl	$1, 32(%rbx)
	sete	%al
	addl	$21, %eax
	movl	%eax, 12(%rsp)
.L1265:
	cmpl	$5, %r13d
	jne	.L1289
	movl	$1, %r13d
.L1277:
	leaq	80(%rsp), %r15
	leaq	32(%rsp), %r14
	movq	%rdx, %rsi
	movq	%r15, %rdi
.LEHB125:
	call	_ZN2ir7OperandC1ERKS0_@PLT
.LEHE125:
	movq	%rbp, %r8
	movl	%r13d, %ecx
	movq	%r15, %rdx
	movq	%r12, %rsi
	movq	%r14, %rdi
.LEHB126:
	call	_ZN8frontend8Analyzer16castExpectedTypeEN2ir7OperandENS1_4TypeERSt6vectorIPNS1_11InstructionESaIS6_EE
.LEHE126:
	movq	80(%rsp), %rdi
	addq	$16, %r15
	cmpq	%r15, %rdi
	je	.L1281
	call	_ZdlPv@PLT
.L1281:
	movl	$136, %edi
.LEHB127:
	call	_Znwm@PLT
.LEHE127:
	leaq	12(%rsp), %r8
	movq	%rbx, %rcx
	movq	%r14, %rdx
	movq	%rbx, %rsi
	movq	%rax, %rdi
	movq	%rax, %r12
.LEHB128:
	call	_ZN2ir11InstructionC1ERKNS_7OperandES3_S3_RKNS_8OperatorE@PLT
.LEHE128:
	leaq	24(%rsp), %rsi
	movq	%rbp, %rdi
	movq	%r12, 24(%rsp)
.LEHB129:
	call	_ZNSt6vectorIPN2ir11InstructionESaIS2_EE12emplace_backIJS2_EEEvDpOT_
.LEHE129:
	movq	32(%rsp), %rdi
	addq	$16, %r14
	cmpq	%r14, %rdi
	je	.L1251
	call	_ZdlPv@PLT
.L1251:
	movq	120(%rsp), %rax
	xorq	%fs:40, %rax
	jne	.L1339
	addq	$136, %rsp
	.cfi_remember_state
	.cfi_def_cfa_offset 56
	popq	%rbx
	.cfi_def_cfa_offset 48
	popq	%rbp
	.cfi_def_cfa_offset 40
	popq	%r12
	.cfi_def_cfa_offset 32
	popq	%r13
	.cfi_def_cfa_offset 24
	popq	%r14
	.cfi_def_cfa_offset 16
	popq	%r15
	.cfi_def_cfa_offset 8
	ret
	.p2align 4,,10
	.p2align 3
.L1259:
	.cfi_restore_state
	movl	32(%rbx), %eax
	xorl	%ecx, %ecx
	cmpl	$1, %eax
	sete	%cl
	addl	$14, %ecx
	movl	%ecx, 12(%rsp)
.L1288:
	cmpl	$1, %eax
	movl	$2, %r13d
	jne	.L1277
.L1279:
	movl	$3, %r13d
	jmp	.L1277
	.p2align 4,,10
	.p2align 3
.L1267:
	movl	32(%rbx), %eax
	xorl	%ecx, %ecx
	cmpl	$1, %eax
	sete	%cl
	addl	$17, %ecx
	movl	%ecx, 12(%rsp)
	jmp	.L1288
	.p2align 4,,10
	.p2align 3
.L1275:
	movl	$22, 12(%rsp)
.L1289:
	cmpl	$4, %r13d
	je	.L1298
.L1341:
	cmpl	$2, %r13d
	je	.L1340
	cmpl	$3, %r13d
	je	.L1279
	testl	%r13d, %r13d
	jne	.L1280
	movl	32(%rbx), %eax
	xorl	%r13d, %r13d
	testl	%eax, %eax
	setne	%r13b
	jmp	.L1277
	.p2align 4,,10
	.p2align 3
.L1272:
	cmpl	$4, %r13d
	movl	$20, 12(%rsp)
	jne	.L1341
	.p2align 4,,10
	.p2align 3
.L1298:
	xorl	%r13d, %r13d
	jmp	.L1277
	.p2align 4,,10
	.p2align 3
.L1280:
	cmpl	$1, %r13d
	je	.L1277
	leaq	_ZZN8frontend8Analyzer19cumulativeComputingEN2ir7OperandES2_NS1_8OperatorERSt6vectorIPNS1_11InstructionESaIS6_EEE19__PRETTY_FUNCTION__(%rip), %rcx
	leaq	.LC0(%rip), %rsi
	leaq	.LC20(%rip), %rdi
	movl	$1707, %edx
	call	__assert_fail@PLT
	.p2align 4,,10
	.p2align 3
.L1260:
	movl	$15, 12(%rsp)
	jmp	.L1289
	.p2align 4,,10
	.p2align 3
.L1268:
	movl	$18, 12(%rsp)
	jmp	.L1289
	.p2align 4,,10
	.p2align 3
.L1340:
	movl	32(%rbx), %eax
	jmp	.L1288
.L1339:
	call	__stack_chk_fail@PLT
.L1252:
	leaq	_ZZN8frontend8Analyzer19cumulativeComputingEN2ir7OperandES2_NS1_8OperatorERSt6vectorIPNS1_11InstructionESaIS6_EEE19__PRETTY_FUNCTION__(%rip), %rcx
	leaq	.LC0(%rip), %rsi
	leaq	.LC19(%rip), %rdi
	movl	$1697, %edx
	call	__assert_fail@PLT
.L1302:
	movl	$136, %esi
	movq	%r12, %rdi
	movq	%rax, %rbx
	call	_ZdlPvm@PLT
.L1286:
	movq	32(%rsp), %rdi
	addq	$16, %r14
	cmpq	%r14, %rdi
	je	.L1287
.L1338:
	call	_ZdlPv@PLT
.L1287:
	movq	%rbx, %rdi
.LEHB130:
	call	_Unwind_Resume@PLT
.LEHE130:
.L1301:
	movq	%rax, %rbx
	jmp	.L1286
.L1300:
	movq	80(%rsp), %rdi
	addq	$16, %r15
	movq	%rax, %rbx
	cmpq	%r15, %rdi
	jne	.L1338
	jmp	.L1287
	.cfi_endproc
.LFE3709:
	.section	.gcc_except_table
.LLSDA3709:
	.byte	0xff
	.byte	0xff
	.byte	0x1
	.uleb128 .LLSDACSE3709-.LLSDACSB3709
.LLSDACSB3709:
	.uleb128 .LEHB125-.LFB3709
	.uleb128 .LEHE125-.LEHB125
	.uleb128 0
	.uleb128 0
	.uleb128 .LEHB126-.LFB3709
	.uleb128 .LEHE126-.LEHB126
	.uleb128 .L1300-.LFB3709
	.uleb128 0
	.uleb128 .LEHB127-.LFB3709
	.uleb128 .LEHE127-.LEHB127
	.uleb128 .L1301-.LFB3709
	.uleb128 0
	.uleb128 .LEHB128-.LFB3709
	.uleb128 .LEHE128-.LEHB128
	.uleb128 .L1302-.LFB3709
	.uleb128 0
	.uleb128 .LEHB129-.LFB3709
	.uleb128 .LEHE129-.LEHB129
	.uleb128 .L1301-.LFB3709
	.uleb128 0
	.uleb128 .LEHB130-.LFB3709
	.uleb128 .LEHE130-.LEHB130
	.uleb128 0
	.uleb128 0
.LLSDACSE3709:
	.text
	.size	_ZN8frontend8Analyzer19cumulativeComputingEN2ir7OperandES2_NS1_8OperatorERSt6vectorIPNS1_11InstructionESaIS6_EE, .-_ZN8frontend8Analyzer19cumulativeComputingEN2ir7OperandES2_NS1_8OperatorERSt6vectorIPNS1_11InstructionESaIS6_EE
	.align 2
	.p2align 4,,15
	.type	_ZN8frontend8Analyzer16castExpectedTypeEN2ir7OperandENS1_4TypeERSt6vectorIPNS1_11InstructionESaIS6_EE.constprop.313, @function
_ZN8frontend8Analyzer16castExpectedTypeEN2ir7OperandENS1_4TypeERSt6vectorIPNS1_11InstructionESaIS6_EE.constprop.313:
.LFB5831:
	.cfi_startproc
	.cfi_personality 0x9b,DW.ref.__gxx_personality_v0
	.cfi_lsda 0x1b,.LLSDA5831
	pushq	%r15
	.cfi_def_cfa_offset 16
	.cfi_offset 15, -16
	pushq	%r14
	.cfi_def_cfa_offset 24
	.cfi_offset 14, -24
	pushq	%r13
	.cfi_def_cfa_offset 32
	.cfi_offset 13, -32
	pushq	%r12
	.cfi_def_cfa_offset 40
	.cfi_offset 12, -40
	pushq	%rbp
	.cfi_def_cfa_offset 48
	.cfi_offset 6, -48
	pushq	%rbx
	.cfi_def_cfa_offset 56
	.cfi_offset 3, -56
	movq	%rsi, %rbx
	subq	$424, %rsp
	.cfi_def_cfa_offset 480
	movq	%fs:40, %rax
	movq	%rax, 408(%rsp)
	xorl	%eax, %eax
	movl	32(%rsi), %eax
	movq	%rdi, 8(%rsp)
	movq	%rdx, 16(%rsp)
	cmpl	$1, %eax
	je	.L1497
	cmpl	$6, %eax
	je	.L1498
	leaq	4+.LC15(%rip), %rdx
	leaq	80(%rsp), %r12
	leaq	-4(%rdx), %rsi
	leaq	16(%r12), %rax
	movq	%r12, %rdi
	movq	%rax, 80(%rsp)
.LEHB131:
	call	_ZNSt7__cxx1112basic_stringIcSt11char_traitsIcESaIcEE12_M_constructIPKcEEvT_S8_St20forward_iterator_tag.isra.146
.LEHE131:
	leaq	112(%rsp), %rdi
	movq	(%rbx), %rsi
	movq	8(%rbx), %rdx
	leaq	16(%rdi), %rax
	movq	%rdi, 24(%rsp)
	addq	%rsi, %rdx
	movq	%rax, 112(%rsp)
.LEHB132:
	call	_ZNSt7__cxx1112basic_stringIcSt11char_traitsIcESaIcEE12_M_constructIPcEEvT_S7_St20forward_iterator_tag.isra.160
.LEHE132:
	leaq	144(%rsp), %r13
	movq	%rbx, %rdx
	movq	%r12, %rsi
	movq	%r13, %rdi
.LEHB133:
	call	_ZStplIcSt11char_traitsIcESaIcEENSt7__cxx1112basic_stringIT_T0_T1_EERKS8_SA_
.LEHE133:
	movl	32(%rbx), %eax
	cmpl	$2, %eax
	je	.L1499
	cmpl	$3, %eax
	je	.L1500
	cmpl	$4, %eax
	je	.L1501
	cmpl	$5, %eax
	je	.L1502
.L1362:
	cmpl	$1, %eax
	je	.L1467
	leaq	368(%rsp), %rbp
	movl	$1, 32(%rbx)
	movq	%r13, %rdx
	movq	%r12, %rsi
	movq	%rbp, %rdi
.LEHB134:
	call	_ZStplIcSt11char_traitsIcESaIcEENSt7__cxx1112basic_stringIT_T0_T1_EERKS8_SA_
	movq	%r13, %rdi
	movq	%rbp, %rsi
	call	_ZNSt7__cxx1112basic_stringIcSt11char_traitsIcESaIcEEaSEOS4_@PLT
	movq	368(%rsp), %rdi
	leaq	16(%rbp), %rax
	cmpq	%rax, %rdi
	je	.L1368
	call	_ZdlPv@PLT
.L1368:
	movq	(%rbx), %rsi
	movq	8(%rbx), %rdx
	leaq	240(%rsp), %rcx
	leaq	256(%rsp), %rax
	movq	%rcx, %rdi
	movq	%rcx, %r15
	movq	%rcx, 48(%rsp)
	addq	%rsi, %rdx
	movq	%rax, 240(%rsp)
	call	_ZNSt7__cxx1112basic_stringIcSt11char_traitsIcESaIcEE12_M_constructIPcEEvT_S7_St20forward_iterator_tag.isra.160
.LEHE134:
	xorl	%edx, %edx
	movq	%r15, %rsi
	movq	%rbp, %rdi
.LEHB135:
	call	_ZN2ir7OperandC1ENSt7__cxx1112basic_stringIcSt11char_traitsIcESaIcEEENS_4TypeE@PLT
.LEHE135:
	leaq	208(%rsp), %rax
	leaq	.LC16(%rip), %rsi
	movq	%rax, %rdi
	movq	%rax, %r15
	movq	%rax, 56(%rsp)
.LEHB136:
	call	_ZNSt7__cxx1112basic_stringIcSt11char_traitsIcESaIcEEC2EPKcRKS3_.isra.148
.LEHE136:
	leaq	320(%rsp), %r14
	movl	$6, %edx
	movq	%r15, %rsi
	movq	%r14, %rdi
.LEHB137:
	call	_ZN2ir7OperandC1ENSt7__cxx1112basic_stringIcSt11char_traitsIcESaIcEEENS_4TypeE@PLT
.LEHE137:
	movq	144(%rsp), %rsi
	movq	152(%rsp), %rdx
	leaq	176(%rsp), %rcx
	leaq	192(%rsp), %rax
	movq	%rcx, %rdi
	movq	%rcx, 32(%rsp)
	addq	%rsi, %rdx
	movq	%rax, 176(%rsp)
.LEHB138:
	call	_ZNSt7__cxx1112basic_stringIcSt11char_traitsIcESaIcEE12_M_constructIPcEEvT_S7_St20forward_iterator_tag.isra.160
.LEHE138:
	leaq	272(%rsp), %r15
	movq	32(%rsp), %rsi
	movl	$1, %edx
	movq	%r15, %rdi
.LEHB139:
	call	_ZN2ir7OperandC1ENSt7__cxx1112basic_stringIcSt11char_traitsIcESaIcEEENS_4TypeE@PLT
.LEHE139:
	movl	$136, %edi
	movl	$11, 68(%rsp)
.LEHB140:
	call	_Znwm@PLT
.LEHE140:
	leaq	68(%rsp), %r8
	movq	%r15, %rcx
	movq	%r14, %rdx
	movq	%rbp, %rsi
	movq	%rax, %rdi
	movq	%rax, 40(%rsp)
.LEHB141:
	call	_ZN2ir11InstructionC1ERKNS_7OperandES3_S3_RKNS_8OperatorE@PLT
.LEHE141:
	movq	40(%rsp), %rax
	movq	16(%rsp), %rdi
	leaq	72(%rsp), %rsi
	movq	%rax, 72(%rsp)
.LEHB142:
	call	_ZNSt6vectorIPN2ir11InstructionESaIS2_EE12emplace_backIJS2_EEEvDpOT_
.LEHE142:
	movq	272(%rsp), %rdi
	leaq	16(%r15), %rax
	cmpq	%rax, %rdi
	je	.L1369
	call	_ZdlPv@PLT
.L1369:
	movq	32(%rsp), %r15
	movq	176(%rsp), %rdi
	addq	$16, %r15
	cmpq	%r15, %rdi
	je	.L1370
	call	_ZdlPv@PLT
.L1370:
	movq	320(%rsp), %rdi
	addq	$16, %r14
	cmpq	%r14, %rdi
	je	.L1371
	call	_ZdlPv@PLT
.L1371:
	movq	56(%rsp), %rax
	movq	208(%rsp), %rdi
	addq	$16, %rax
	cmpq	%rax, %rdi
	je	.L1372
	call	_ZdlPv@PLT
.L1372:
	movq	368(%rsp), %rdi
	addq	$16, %rbp
	cmpq	%rbp, %rdi
	je	.L1373
	call	_ZdlPv@PLT
.L1373:
	movq	48(%rsp), %rax
	movq	240(%rsp), %rdi
	addq	$16, %rax
	cmpq	%rax, %rdi
	je	.L1374
	call	_ZdlPv@PLT
.L1374:
	movq	%r13, %rsi
	movq	%rbx, %rdi
.LEHB143:
	call	_ZNSt7__cxx1112basic_stringIcSt11char_traitsIcESaIcEE9_M_assignERKS4_@PLT
.L1467:
	movq	8(%rsp), %rdi
	movq	%rbx, %rsi
	call	_ZN2ir7OperandC1ERKS0_@PLT
.L1351:
	movq	144(%rsp), %rdi
	addq	$16, %r13
	cmpq	%r13, %rdi
	je	.L1376
	call	_ZdlPv@PLT
.L1376:
	movq	24(%rsp), %rax
	movq	112(%rsp), %rdi
	addq	$16, %rax
	cmpq	%rax, %rdi
	je	.L1377
	call	_ZdlPv@PLT
.L1377:
	movq	80(%rsp), %rdi
	addq	$16, %r12
	cmpq	%r12, %rdi
	je	.L1342
	call	_ZdlPv@PLT
.L1342:
	movq	408(%rsp), %rcx
	xorq	%fs:40, %rcx
	movq	8(%rsp), %rax
	jne	.L1503
	addq	$424, %rsp
	.cfi_remember_state
	.cfi_def_cfa_offset 56
	popq	%rbx
	.cfi_def_cfa_offset 48
	popq	%rbp
	.cfi_def_cfa_offset 40
	popq	%r12
	.cfi_def_cfa_offset 32
	popq	%r13
	.cfi_def_cfa_offset 24
	popq	%r14
	.cfi_def_cfa_offset 16
	popq	%r15
	.cfi_def_cfa_offset 8
	ret
	.p2align 4,,10
	.p2align 3
.L1501:
	.cfi_restore_state
	leaq	368(%rsp), %rbp
	movq	144(%rsp), %rsi
	movq	152(%rsp), %rdx
	leaq	16(%rbp), %rax
	movq	%rbp, %rdi
	addq	%rsi, %rdx
	movq	%rax, 368(%rsp)
	call	_ZNSt7__cxx1112basic_stringIcSt11char_traitsIcESaIcEE12_M_constructIPcEEvT_S7_St20forward_iterator_tag.isra.160
.LEHE143:
	leaq	320(%rsp), %r14
	xorl	%edx, %edx
	movq	%rbp, %rsi
	movq	%r14, %rdi
.LEHB144:
	call	_ZN2ir7OperandC1ENSt7__cxx1112basic_stringIcSt11char_traitsIcESaIcEEENS_4TypeE@PLT
.LEHE144:
	movq	368(%rsp), %rdi
	leaq	16(%rbp), %rax
	cmpq	%rax, %rdi
	je	.L1358
	call	_ZdlPv@PLT
.L1358:
	leaq	272(%rsp), %r15
	leaq	.LC18(%rip), %rsi
	movq	%r15, %rdi
.LEHB145:
	call	_ZNSt7__cxx1112basic_stringIcSt11char_traitsIcESaIcEEC2EPKcRKS3_.isra.148
.LEHE145:
	movl	$2, %edx
	movq	%r15, %rsi
	movq	%rbp, %rdi
.LEHB146:
	call	_ZN2ir7OperandC1ENSt7__cxx1112basic_stringIcSt11char_traitsIcESaIcEEENS_4TypeE@PLT
.LEHE146:
	movq	272(%rsp), %rdi
	leaq	16(%r15), %rax
	cmpq	%rax, %rdi
	je	.L1359
	call	_ZdlPv@PLT
.L1359:
	movl	$136, %edi
	movl	$5, 68(%rsp)
.LEHB147:
	call	_Znwm@PLT
.LEHE147:
	leaq	68(%rsp), %r8
	movq	%r14, %rcx
	movq	%rbp, %rdx
	movq	%rbx, %rsi
	movq	%rax, %rdi
	movq	%rax, %r15
.LEHB148:
	call	_ZN2ir11InstructionC1ERKNS_7OperandES3_S3_RKNS_8OperatorE@PLT
.LEHE148:
	movq	16(%rsp), %rdi
	leaq	72(%rsp), %rsi
	movq	%r15, 72(%rsp)
.LEHB149:
	call	_ZNSt6vectorIPN2ir11InstructionESaIS2_EE12emplace_backIJS2_EEEvDpOT_
	movq	%r13, %rsi
	movq	%rbx, %rdi
	call	_ZNSt7__cxx1112basic_stringIcSt11char_traitsIcESaIcEE9_M_assignERKS4_@PLT
.LEHE149:
	movl	$0, 32(%rbx)
	movq	368(%rsp), %rdi
	addq	$16, %rbp
	cmpq	%rbp, %rdi
	je	.L1365
.L1485:
	call	_ZdlPv@PLT
.L1365:
	movq	320(%rsp), %rdi
	addq	$16, %r14
	cmpq	%r14, %rdi
	je	.L1366
	call	_ZdlPv@PLT
.L1366:
	movl	32(%rbx), %eax
	jmp	.L1362
	.p2align 4,,10
	.p2align 3
.L1497:
.LEHB150:
	call	_ZN2ir7OperandC1ERKS0_@PLT
.LEHE150:
	jmp	.L1342
	.p2align 4,,10
	.p2align 3
.L1499:
	leaq	368(%rsp), %rbp
	movq	144(%rsp), %rsi
	movq	152(%rsp), %rdx
	leaq	16(%rbp), %rax
	movq	%rbp, %rdi
	addq	%rsi, %rdx
	movq	%rax, 368(%rsp)
.LEHB151:
	call	_ZNSt7__cxx1112basic_stringIcSt11char_traitsIcESaIcEE12_M_constructIPcEEvT_S7_St20forward_iterator_tag.isra.160
.LEHE151:
	leaq	320(%rsp), %r14
	movl	$1, %edx
	movq	%rbp, %rsi
	movq	%r14, %rdi
.LEHB152:
	call	_ZN2ir7OperandC1ENSt7__cxx1112basic_stringIcSt11char_traitsIcESaIcEEENS_4TypeE@PLT
.LEHE152:
	movq	368(%rsp), %rdi
	leaq	16(%rbp), %rax
	cmpq	%rax, %rdi
	je	.L1347
	call	_ZdlPv@PLT
.L1347:
	leaq	272(%rsp), %r15
	leaq	.LC16(%rip), %rsi
	movq	%r15, %rdi
.LEHB153:
	call	_ZNSt7__cxx1112basic_stringIcSt11char_traitsIcESaIcEEC2EPKcRKS3_.isra.148
.LEHE153:
	movl	$6, %edx
	movq	%r15, %rsi
	movq	%rbp, %rdi
.LEHB154:
	call	_ZN2ir7OperandC1ENSt7__cxx1112basic_stringIcSt11char_traitsIcESaIcEEENS_4TypeE@PLT
.LEHE154:
	movl	$136, %edi
	movl	$11, 68(%rsp)
.LEHB155:
	call	_Znwm@PLT
.LEHE155:
	leaq	68(%rsp), %r8
	movq	%rbx, %rsi
	movq	%r14, %rcx
	movq	%rbp, %rdx
	movq	%rax, %rdi
	movq	%rax, 32(%rsp)
	movq	%rax, %rbx
.LEHB156:
	call	_ZN2ir11InstructionC1ERKNS_7OperandES3_S3_RKNS_8OperatorE@PLT
.LEHE156:
	movq	16(%rsp), %rdi
	leaq	72(%rsp), %rsi
	movq	%rbx, 72(%rsp)
.LEHB157:
	call	_ZNSt6vectorIPN2ir11InstructionESaIS2_EE12emplace_backIJS2_EEEvDpOT_
.LEHE157:
	movq	368(%rsp), %rdi
	addq	$16, %rbp
	cmpq	%rbp, %rdi
	je	.L1348
	call	_ZdlPv@PLT
.L1348:
	movq	272(%rsp), %rdi
	leaq	16(%r15), %rax
	cmpq	%rax, %rdi
	je	.L1349
	call	_ZdlPv@PLT
.L1349:
	movq	8(%rsp), %rdi
	movq	%r14, %rsi
.LEHB158:
	call	_ZN2ir7OperandC1ERKS0_@PLT
.LEHE158:
.L1474:
	movq	320(%rsp), %rdi
	addq	$16, %r14
	cmpq	%r14, %rdi
	je	.L1351
	call	_ZdlPv@PLT
	jmp	.L1351
	.p2align 4,,10
	.p2align 3
.L1500:
	leaq	368(%rsp), %rbp
	movq	144(%rsp), %rsi
	movq	152(%rsp), %rdx
	leaq	16(%rbp), %rax
	movq	%rbp, %rdi
	addq	%rsi, %rdx
	movq	%rax, 368(%rsp)
.LEHB159:
	call	_ZNSt7__cxx1112basic_stringIcSt11char_traitsIcESaIcEE12_M_constructIPcEEvT_S7_St20forward_iterator_tag.isra.160
.LEHE159:
	leaq	320(%rsp), %r14
	movl	$1, %edx
	movq	%rbp, %rsi
	movq	%r14, %rdi
.LEHB160:
	call	_ZN2ir7OperandC1ENSt7__cxx1112basic_stringIcSt11char_traitsIcESaIcEEENS_4TypeE@PLT
.LEHE160:
	movq	368(%rsp), %rdi
	leaq	16(%rbp), %rax
	cmpq	%rax, %rdi
	je	.L1353
	call	_ZdlPv@PLT
.L1353:
	leaq	.LC17(%rip), %rsi
	leaq	_ZSt4cout(%rip), %rdi
	movl	$15, %edx
.LEHB161:
	call	_ZSt16__ostream_insertIcSt11char_traitsIcEERSt13basic_ostreamIT_T0_ES6_PKS3_l@PLT
	movq	8(%rbx), %rdx
	movq	(%rbx), %rsi
	leaq	_ZSt4cout(%rip), %rdi
	call	_ZSt16__ostream_insertIcSt11char_traitsIcEERSt13basic_ostreamIT_T0_ES6_PKS3_l@PLT
	movq	%rax, %rdi
	call	_ZSt4endlIcSt11char_traitsIcEERSt13basic_ostreamIT_T0_ES6_@PLT
	leaq	272(%rsp), %r15
	leaq	.LC16(%rip), %rsi
	movq	%r15, %rdi
	call	_ZNSt7__cxx1112basic_stringIcSt11char_traitsIcESaIcEEC2EPKcRKS3_.isra.148
.LEHE161:
	movl	$6, %edx
	movq	%r15, %rsi
	movq	%rbp, %rdi
.LEHB162:
	call	_ZN2ir7OperandC1ENSt7__cxx1112basic_stringIcSt11char_traitsIcESaIcEEENS_4TypeE@PLT
.LEHE162:
	movl	$136, %edi
	movl	$8, 68(%rsp)
.LEHB163:
	call	_Znwm@PLT
.LEHE163:
	leaq	68(%rsp), %r8
	movq	%rbx, %rsi
	movq	%r14, %rcx
	movq	%rbp, %rdx
	movq	%rax, %rdi
	movq	%rax, 32(%rsp)
	movq	%rax, %rbx
.LEHB164:
	call	_ZN2ir11InstructionC1ERKNS_7OperandES3_S3_RKNS_8OperatorE@PLT
.LEHE164:
	movq	16(%rsp), %rdi
	leaq	72(%rsp), %rsi
	movq	%rbx, 72(%rsp)
.LEHB165:
	call	_ZNSt6vectorIPN2ir11InstructionESaIS2_EE12emplace_backIJS2_EEEvDpOT_
.LEHE165:
	movq	368(%rsp), %rdi
	addq	$16, %rbp
	cmpq	%rbp, %rdi
	je	.L1354
	call	_ZdlPv@PLT
.L1354:
	movq	272(%rsp), %rdi
	leaq	16(%r15), %rax
	cmpq	%rax, %rdi
	je	.L1355
	call	_ZdlPv@PLT
.L1355:
	movq	8(%rsp), %rdi
	movq	%r14, %rsi
.LEHB166:
	call	_ZN2ir7OperandC1ERKS0_@PLT
.LEHE166:
	jmp	.L1474
	.p2align 4,,10
	.p2align 3
.L1502:
	leaq	368(%rsp), %rbp
	movq	144(%rsp), %rsi
	movq	152(%rsp), %rdx
	leaq	16(%rbp), %rax
	movq	%rbp, %rdi
	addq	%rsi, %rdx
	movq	%rax, 368(%rsp)
.LEHB167:
	call	_ZNSt7__cxx1112basic_stringIcSt11char_traitsIcESaIcEE12_M_constructIPcEEvT_S7_St20forward_iterator_tag.isra.160
.LEHE167:
	leaq	320(%rsp), %r14
	movl	$1, %edx
	movq	%rbp, %rsi
	movq	%r14, %rdi
.LEHB168:
	call	_ZN2ir7OperandC1ENSt7__cxx1112basic_stringIcSt11char_traitsIcESaIcEEENS_4TypeE@PLT
.LEHE168:
	movq	368(%rsp), %rdi
	leaq	16(%rbp), %rax
	cmpq	%rax, %rdi
	je	.L1363
	call	_ZdlPv@PLT
.L1363:
	leaq	272(%rsp), %r15
	leaq	.LC18(%rip), %rsi
	movq	%r15, %rdi
.LEHB169:
	call	_ZNSt7__cxx1112basic_stringIcSt11char_traitsIcESaIcEEC2EPKcRKS3_.isra.148
.LEHE169:
	movl	$2, %edx
	movq	%r15, %rsi
	movq	%rbp, %rdi
.LEHB170:
	call	_ZN2ir7OperandC1ENSt7__cxx1112basic_stringIcSt11char_traitsIcESaIcEEENS_4TypeE@PLT
.LEHE170:
	movq	272(%rsp), %rdi
	leaq	16(%r15), %rax
	cmpq	%rax, %rdi
	je	.L1364
	call	_ZdlPv@PLT
.L1364:
	movl	$136, %edi
	movl	$5, 68(%rsp)
.LEHB171:
	call	_Znwm@PLT
.LEHE171:
	leaq	68(%rsp), %r8
	movq	%r14, %rcx
	movq	%rbp, %rdx
	movq	%rbx, %rsi
	movq	%rax, %rdi
	movq	%rax, %r15
.LEHB172:
	call	_ZN2ir11InstructionC1ERKNS_7OperandES3_S3_RKNS_8OperatorE@PLT
.LEHE172:
	movq	16(%rsp), %rdi
	leaq	72(%rsp), %rsi
	movq	%r15, 72(%rsp)
.LEHB173:
	call	_ZNSt6vectorIPN2ir11InstructionESaIS2_EE12emplace_backIJS2_EEEvDpOT_
	movq	%r13, %rsi
	movq	%rbx, %rdi
	call	_ZNSt7__cxx1112basic_stringIcSt11char_traitsIcESaIcEE9_M_assignERKS4_@PLT
.LEHE173:
	movl	$1, 32(%rbx)
	movq	368(%rsp), %rdi
	addq	$16, %rbp
	cmpq	%rbp, %rdi
	jne	.L1485
	jmp	.L1365
.L1503:
	call	__stack_chk_fail@PLT
.L1498:
	leaq	_ZZN8frontend8Analyzer16castExpectedTypeEN2ir7OperandENS1_4TypeERSt6vectorIPNS1_11InstructionESaIS6_EEE19__PRETTY_FUNCTION__(%rip), %rcx
	leaq	.LC0(%rip), %rsi
	leaq	.LC13(%rip), %rdi
	movl	$1733, %edx
	call	__assert_fail@PLT
.L1446:
.L1493:
	movl	$136, %esi
	movq	%r15, %rdi
	movq	%rax, %rbx
	call	_ZdlPvm@PLT
.L1412:
	movq	368(%rsp), %rdi
	addq	$16, %rbp
	cmpq	%rbp, %rdi
	je	.L1410
.L1469:
	call	_ZdlPv@PLT
.L1410:
	movq	320(%rsp), %rdi
	addq	$16, %r14
	cmpq	%r14, %rdi
	je	.L1380
.L1470:
	call	_ZdlPv@PLT
.L1380:
	movq	144(%rsp), %rdi
	addq	$16, %r13
	cmpq	%r13, %rdi
	je	.L1429
	call	_ZdlPv@PLT
.L1429:
	movq	24(%rsp), %rdx
	movq	112(%rsp), %rdi
	addq	$16, %rdx
	cmpq	%rdx, %rdi
	je	.L1431
	call	_ZdlPv@PLT
.L1431:
	movq	80(%rsp), %rdi
	addq	$16, %r12
	cmpq	%r12, %rdi
	je	.L1432
	call	_ZdlPv@PLT
.L1432:
	movq	%rbx, %rdi
.LEHB174:
	call	_Unwind_Resume@PLT
.LEHE174:
.L1445:
.L1492:
	movq	%rax, %rbx
	jmp	.L1412
.L1436:
	movq	%rax, %rbx
	jmp	.L1380
.L1437:
	movq	%rax, %rbx
.L1426:
	movq	48(%rsp), %rdx
	movq	240(%rsp), %rdi
	addq	$16, %rdx
	cmpq	%rdx, %rdi
	jne	.L1470
	jmp	.L1380
.L1435:
	movq	%rax, %rbx
	jmp	.L1429
.L1434:
	movq	%rax, %rbx
	jmp	.L1431
.L1449:
.L1484:
	movq	%rax, %rbx
	jmp	.L1410
.L1453:
.L1477:
	movq	368(%rsp), %rdi
	addq	$16, %rbp
	movq	%rax, %rbx
	cmpq	%rbp, %rdi
	jne	.L1470
	jmp	.L1380
.L1438:
	movq	%rax, %rbx
.L1424:
	movq	368(%rsp), %rdi
	addq	$16, %rbp
	cmpq	%rbp, %rdi
	je	.L1426
	call	_ZdlPv@PLT
	jmp	.L1426
.L1439:
	movq	%rax, %rbx
.L1422:
	movq	56(%rsp), %rdx
	movq	208(%rsp), %rdi
	addq	$16, %rdx
	cmpq	%rdx, %rdi
	je	.L1424
	call	_ZdlPv@PLT
	jmp	.L1424
.L1440:
	movq	%rax, %rbx
.L1420:
	movq	320(%rsp), %rdi
	addq	$16, %r14
	cmpq	%r14, %rdi
	je	.L1422
	call	_ZdlPv@PLT
	jmp	.L1422
.L1441:
	movq	%rax, %rbx
.L1418:
	movq	32(%rsp), %r15
	movq	176(%rsp), %rdi
	addq	$16, %r15
	cmpq	%r15, %rdi
	je	.L1420
	call	_ZdlPv@PLT
	jmp	.L1420
.L1442:
	movq	%rax, %rbx
.L1416:
	movq	272(%rsp), %rdi
	leaq	16(%r15), %rdx
	cmpq	%rdx, %rdi
	je	.L1418
	call	_ZdlPv@PLT
	jmp	.L1418
.L1443:
	movq	40(%rsp), %rdi
	movl	$136, %esi
	movq	%rax, %rbx
	call	_ZdlPvm@PLT
	jmp	.L1416
.L1447:
.L1488:
	movq	%rax, %rbx
.L1393:
	movq	272(%rsp), %rdi
	leaq	16(%r15), %rax
	cmpq	%rax, %rdi
	jne	.L1469
	jmp	.L1410
.L1444:
	jmp	.L1484
.L1448:
	jmp	.L1477
.L1457:
.L1496:
	movq	32(%rsp), %rdi
	movl	$136, %esi
	movq	%rax, %rbx
	call	_ZdlPvm@PLT
.L1391:
	movq	368(%rsp), %rdi
	addq	$16, %rbp
	cmpq	%rbp, %rdi
	je	.L1393
	call	_ZdlPv@PLT
	jmp	.L1393
.L1456:
.L1495:
	movq	%rax, %rbx
	jmp	.L1391
.L1455:
	jmp	.L1488
.L1454:
	jmp	.L1484
.L1458:
	jmp	.L1477
.L1462:
	jmp	.L1496
.L1461:
	jmp	.L1495
.L1460:
	jmp	.L1488
.L1459:
	jmp	.L1484
.L1463:
	jmp	.L1477
.L1451:
	jmp	.L1493
.L1450:
	jmp	.L1492
.L1452:
	jmp	.L1488
	.cfi_endproc
.LFE5831:
	.section	.gcc_except_table
.LLSDA5831:
	.byte	0xff
	.byte	0xff
	.byte	0x1
	.uleb128 .LLSDACSE5831-.LLSDACSB5831
.LLSDACSB5831:
	.uleb128 .LEHB131-.LFB5831
	.uleb128 .LEHE131-.LEHB131
	.uleb128 0
	.uleb128 0
	.uleb128 .LEHB132-.LFB5831
	.uleb128 .LEHE132-.LEHB132
	.uleb128 .L1434-.LFB5831
	.uleb128 0
	.uleb128 .LEHB133-.LFB5831
	.uleb128 .LEHE133-.LEHB133
	.uleb128 .L1435-.LFB5831
	.uleb128 0
	.uleb128 .LEHB134-.LFB5831
	.uleb128 .LEHE134-.LEHB134
	.uleb128 .L1436-.LFB5831
	.uleb128 0
	.uleb128 .LEHB135-.LFB5831
	.uleb128 .LEHE135-.LEHB135
	.uleb128 .L1437-.LFB5831
	.uleb128 0
	.uleb128 .LEHB136-.LFB5831
	.uleb128 .LEHE136-.LEHB136
	.uleb128 .L1438-.LFB5831
	.uleb128 0
	.uleb128 .LEHB137-.LFB5831
	.uleb128 .LEHE137-.LEHB137
	.uleb128 .L1439-.LFB5831
	.uleb128 0
	.uleb128 .LEHB138-.LFB5831
	.uleb128 .LEHE138-.LEHB138
	.uleb128 .L1440-.LFB5831
	.uleb128 0
	.uleb128 .LEHB139-.LFB5831
	.uleb128 .LEHE139-.LEHB139
	.uleb128 .L1441-.LFB5831
	.uleb128 0
	.uleb128 .LEHB140-.LFB5831
	.uleb128 .LEHE140-.LEHB140
	.uleb128 .L1442-.LFB5831
	.uleb128 0
	.uleb128 .LEHB141-.LFB5831
	.uleb128 .LEHE141-.LEHB141
	.uleb128 .L1443-.LFB5831
	.uleb128 0
	.uleb128 .LEHB142-.LFB5831
	.uleb128 .LEHE142-.LEHB142
	.uleb128 .L1442-.LFB5831
	.uleb128 0
	.uleb128 .LEHB143-.LFB5831
	.uleb128 .LEHE143-.LEHB143
	.uleb128 .L1436-.LFB5831
	.uleb128 0
	.uleb128 .LEHB144-.LFB5831
	.uleb128 .LEHE144-.LEHB144
	.uleb128 .L1453-.LFB5831
	.uleb128 0
	.uleb128 .LEHB145-.LFB5831
	.uleb128 .LEHE145-.LEHB145
	.uleb128 .L1449-.LFB5831
	.uleb128 0
	.uleb128 .LEHB146-.LFB5831
	.uleb128 .LEHE146-.LEHB146
	.uleb128 .L1452-.LFB5831
	.uleb128 0
	.uleb128 .LEHB147-.LFB5831
	.uleb128 .LEHE147-.LEHB147
	.uleb128 .L1450-.LFB5831
	.uleb128 0
	.uleb128 .LEHB148-.LFB5831
	.uleb128 .LEHE148-.LEHB148
	.uleb128 .L1451-.LFB5831
	.uleb128 0
	.uleb128 .LEHB149-.LFB5831
	.uleb128 .LEHE149-.LEHB149
	.uleb128 .L1450-.LFB5831
	.uleb128 0
	.uleb128 .LEHB150-.LFB5831
	.uleb128 .LEHE150-.LEHB150
	.uleb128 0
	.uleb128 0
	.uleb128 .LEHB151-.LFB5831
	.uleb128 .LEHE151-.LEHB151
	.uleb128 .L1436-.LFB5831
	.uleb128 0
	.uleb128 .LEHB152-.LFB5831
	.uleb128 .LEHE152-.LEHB152
	.uleb128 .L1463-.LFB5831
	.uleb128 0
	.uleb128 .LEHB153-.LFB5831
	.uleb128 .LEHE153-.LEHB153
	.uleb128 .L1459-.LFB5831
	.uleb128 0
	.uleb128 .LEHB154-.LFB5831
	.uleb128 .LEHE154-.LEHB154
	.uleb128 .L1460-.LFB5831
	.uleb128 0
	.uleb128 .LEHB155-.LFB5831
	.uleb128 .LEHE155-.LEHB155
	.uleb128 .L1461-.LFB5831
	.uleb128 0
	.uleb128 .LEHB156-.LFB5831
	.uleb128 .LEHE156-.LEHB156
	.uleb128 .L1462-.LFB5831
	.uleb128 0
	.uleb128 .LEHB157-.LFB5831
	.uleb128 .LEHE157-.LEHB157
	.uleb128 .L1461-.LFB5831
	.uleb128 0
	.uleb128 .LEHB158-.LFB5831
	.uleb128 .LEHE158-.LEHB158
	.uleb128 .L1459-.LFB5831
	.uleb128 0
	.uleb128 .LEHB159-.LFB5831
	.uleb128 .LEHE159-.LEHB159
	.uleb128 .L1436-.LFB5831
	.uleb128 0
	.uleb128 .LEHB160-.LFB5831
	.uleb128 .LEHE160-.LEHB160
	.uleb128 .L1458-.LFB5831
	.uleb128 0
	.uleb128 .LEHB161-.LFB5831
	.uleb128 .LEHE161-.LEHB161
	.uleb128 .L1454-.LFB5831
	.uleb128 0
	.uleb128 .LEHB162-.LFB5831
	.uleb128 .LEHE162-.LEHB162
	.uleb128 .L1455-.LFB5831
	.uleb128 0
	.uleb128 .LEHB163-.LFB5831
	.uleb128 .LEHE163-.LEHB163
	.uleb128 .L1456-.LFB5831
	.uleb128 0
	.uleb128 .LEHB164-.LFB5831
	.uleb128 .LEHE164-.LEHB164
	.uleb128 .L1457-.LFB5831
	.uleb128 0
	.uleb128 .LEHB165-.LFB5831
	.uleb128 .LEHE165-.LEHB165
	.uleb128 .L1456-.LFB5831
	.uleb128 0
	.uleb128 .LEHB166-.LFB5831
	.uleb128 .LEHE166-.LEHB166
	.uleb128 .L1454-.LFB5831
	.uleb128 0
	.uleb128 .LEHB167-.LFB5831
	.uleb128 .LEHE167-.LEHB167
	.uleb128 .L1436-.LFB5831
	.uleb128 0
	.uleb128 .LEHB168-.LFB5831
	.uleb128 .LEHE168-.LEHB168
	.uleb128 .L1448-.LFB5831
	.uleb128 0
	.uleb128 .LEHB169-.LFB5831
	.uleb128 .LEHE169-.LEHB169
	.uleb128 .L1444-.LFB5831
	.uleb128 0
	.uleb128 .LEHB170-.LFB5831
	.uleb128 .LEHE170-.LEHB170
	.uleb128 .L1447-.LFB5831
	.uleb128 0
	.uleb128 .LEHB171-.LFB5831
	.uleb128 .LEHE171-.LEHB171
	.uleb128 .L1445-.LFB5831
	.uleb128 0
	.uleb128 .LEHB172-.LFB5831
	.uleb128 .LEHE172-.LEHB172
	.uleb128 .L1446-.LFB5831
	.uleb128 0
	.uleb128 .LEHB173-.LFB5831
	.uleb128 .LEHE173-.LEHB173
	.uleb128 .L1445-.LFB5831
	.uleb128 0
	.uleb128 .LEHB174-.LFB5831
	.uleb128 .LEHE174-.LEHB174
	.uleb128 0
	.uleb128 0
.LLSDACSE5831:
	.text
	.size	_ZN8frontend8Analyzer16castExpectedTypeEN2ir7OperandENS1_4TypeERSt6vectorIPNS1_11InstructionESaIS6_EE.constprop.313, .-_ZN8frontend8Analyzer16castExpectedTypeEN2ir7OperandENS1_4TypeERSt6vectorIPNS1_11InstructionESaIS6_EE.constprop.313
	.section	.text._ZNSt6vectorIN2ir9GlobalValESaIS1_EE17_M_realloc_insertIJRKS1_EEEvN9__gnu_cxx17__normal_iteratorIPS1_S3_EEDpOT_,"axG",@progbits,_ZNSt6vectorIN2ir9GlobalValESaIS1_EE17_M_realloc_insertIJRKS1_EEEvN9__gnu_cxx17__normal_iteratorIPS1_S3_EEDpOT_,comdat
	.align 2
	.p2align 4,,15
	.weak	_ZNSt6vectorIN2ir9GlobalValESaIS1_EE17_M_realloc_insertIJRKS1_EEEvN9__gnu_cxx17__normal_iteratorIPS1_S3_EEDpOT_
	.type	_ZNSt6vectorIN2ir9GlobalValESaIS1_EE17_M_realloc_insertIJRKS1_EEEvN9__gnu_cxx17__normal_iteratorIPS1_S3_EEDpOT_, @function
_ZNSt6vectorIN2ir9GlobalValESaIS1_EE17_M_realloc_insertIJRKS1_EEEvN9__gnu_cxx17__normal_iteratorIPS1_S3_EEDpOT_:
.LFB4516:
	.cfi_startproc
	.cfi_personality 0x9b,DW.ref.__gxx_personality_v0
	.cfi_lsda 0x1b,.LLSDA4516
	pushq	%r15
	.cfi_def_cfa_offset 16
	.cfi_offset 15, -16
	pushq	%r14
	.cfi_def_cfa_offset 24
	.cfi_offset 14, -24
	movabsq	$-6148914691236517205, %rcx
	pushq	%r13
	.cfi_def_cfa_offset 32
	.cfi_offset 13, -32
	pushq	%r12
	.cfi_def_cfa_offset 40
	.cfi_offset 12, -40
	movq	%rsi, %r15
	pushq	%rbp
	.cfi_def_cfa_offset 48
	.cfi_offset 6, -48
	pushq	%rbx
	.cfi_def_cfa_offset 56
	.cfi_offset 3, -56
	movq	%rdx, %rbx
	movq	%rdi, %r12
	movq	%rsi, %r13
	movq	%rsi, %rbp
	subq	$24, %rsp
	.cfi_def_cfa_offset 80
	movq	(%rdi), %rdx
	movq	8(%rdi), %rax
	subq	%rdx, %rax
	subq	%rdx, %r15
	sarq	$4, %rax
	imulq	%rcx, %rax
	testq	%rax, %rax
	je	.L1541
	leaq	(%rax,%rax), %r14
	cmpq	%r14, %rax
	jbe	.L1576
.L1543:
	movq	$-16, %r14
.L1506:
	movq	%r14, %rdi
.LEHB175:
	call	_Znwm@PLT
.LEHE175:
	movq	%rax, (%rsp)
.L1507:
	addq	(%rsp), %r15
	movq	%r15, 8(%rsp)
	je	.L1508
	movq	%rbx, %rsi
	movq	%r15, %rdi
.LEHB176:
	call	_ZN2ir7OperandC1ERKS0_@PLT
.LEHE176:
	movl	40(%rbx), %eax
	movl	%eax, 40(%r15)
.L1508:
	movq	(%r12), %r15
	cmpq	%r13, %r15
	je	.L1509
	movq	(%rsp), %rbx
	jmp	.L1511
	.p2align 4,,10
	.p2align 3
.L1545:
	movq	%rax, %rbx
.L1511:
	testq	%rbx, %rbx
	je	.L1510
	movq	%r15, %rsi
	movq	%rbx, %rdi
.LEHB177:
	call	_ZN2ir7OperandC1ERKS0_@PLT
.LEHE177:
	movl	40(%r15), %eax
	movl	%eax, 40(%rbx)
.L1510:
	addq	$48, %r15
	leaq	48(%rbx), %rax
	cmpq	%r15, %r13
	jne	.L1545
	movq	8(%r12), %r15
	addq	$96, %rbx
	cmpq	%r13, %r15
	je	.L1512
.L1575:
	movq	%rbx, %r13
	.p2align 4,,10
	.p2align 3
.L1521:
	testq	%rbx, %rbx
	je	.L1520
	movq	%rbp, %rsi
	movq	%rbx, %rdi
.LEHB178:
	call	_ZN2ir7OperandC1ERKS0_@PLT
.LEHE178:
	movl	40(%rbp), %eax
	movl	%eax, 40(%rbx)
.L1520:
	addq	$48, %rbp
	addq	$48, %rbx
	cmpq	%r15, %rbp
	jne	.L1521
	movq	8(%r12), %rbp
.L1512:
	movq	(%r12), %rax
	cmpq	%rbp, %rax
	je	.L1522
	leaq	48(%rax), %r13
	movabsq	$768614336404564651, %rdx
	subq	%r13, %rbp
	shrq	$4, %rbp
	imulq	%rdx, %rbp
	movabsq	$1152921504606846975, %rdx
	andq	%rdx, %rbp
	leaq	3(%rbp,%rbp,2), %rbp
	salq	$4, %rbp
	addq	%rax, %rbp
	jmp	.L1530
	.p2align 4,,10
	.p2align 3
.L1577:
	call	_ZdlPv@PLT
	cmpq	%r13, %rbp
	movq	%r13, %rax
	je	.L1532
.L1533:
	addq	$48, %r13
.L1530:
	movq	(%rax), %rdi
	addq	$16, %rax
	cmpq	%rax, %rdi
	jne	.L1577
	cmpq	%r13, %rbp
	movq	%r13, %rax
	jne	.L1533
.L1532:
	movq	(%r12), %rbp
.L1522:
	testq	%rbp, %rbp
	je	.L1534
	movq	%rbp, %rdi
	call	_ZdlPv@PLT
.L1534:
	movq	(%rsp), %rax
	movq	%rbx, 8(%r12)
	addq	%rax, %r14
	movq	%rax, (%r12)
	movq	%r14, 16(%r12)
	addq	$24, %rsp
	.cfi_remember_state
	.cfi_def_cfa_offset 56
	popq	%rbx
	.cfi_def_cfa_offset 48
	popq	%rbp
	.cfi_def_cfa_offset 40
	popq	%r12
	.cfi_def_cfa_offset 32
	popq	%r13
	.cfi_def_cfa_offset 24
	popq	%r14
	.cfi_def_cfa_offset 16
	popq	%r15
	.cfi_def_cfa_offset 8
	ret
	.p2align 4,,10
	.p2align 3
.L1541:
	.cfi_restore_state
	movl	$1, %r14d
.L1505:
	leaq	(%r14,%r14,2), %r14
	salq	$4, %r14
	jmp	.L1506
	.p2align 4,,10
	.p2align 3
.L1576:
	movabsq	$384307168202282325, %rax
	cmpq	%rax, %r14
	ja	.L1543
	testq	%r14, %r14
	jne	.L1505
	movq	$0, (%rsp)
	jmp	.L1507
	.p2align 4,,10
	.p2align 3
.L1509:
	movq	8(%r12), %r15
	movq	(%rsp), %rax
	cmpq	%r15, %r13
	leaq	48(%rax), %rbx
	jne	.L1575
	jmp	.L1522
.L1550:
	movq	%rax, %rdi
	movq	%r13, %rbp
	call	__cxa_begin_catch@PLT
.L1527:
	cmpq	%rbx, %rbp
	je	.L1525
	movq	0(%rbp), %rdi
	leaq	16(%rbp), %rax
	cmpq	%rax, %rdi
	je	.L1526
	call	_ZdlPv@PLT
.L1526:
	addq	$48, %rbp
	jmp	.L1527
.L1525:
.LEHB179:
	call	__cxa_rethrow@PLT
.LEHE179:
.L1551:
	movq	%rax, %rdi
	call	__cxa_begin_catch@PLT
	cmpq	$0, (%rsp)
	je	.L1519
.L1552:
	movq	(%rsp), %rdi
	call	_ZdlPv@PLT
.L1539:
.LEHB180:
	call	__cxa_rethrow@PLT
.LEHE180:
.L1548:
	movq	%rax, %rdi
	call	__cxa_begin_catch@PLT
	movq	(%rsp), %rbp
.L1517:
	cmpq	%rbp, %rbx
	je	.L1515
	movq	0(%rbp), %rdi
	leaq	16(%rbp), %rax
	cmpq	%rax, %rdi
	je	.L1516
	call	_ZdlPv@PLT
.L1516:
	addq	$48, %rbp
	jmp	.L1517
.L1515:
.LEHB181:
	call	__cxa_rethrow@PLT
.LEHE181:
.L1549:
	movq	%rax, %rbx
	call	__cxa_end_catch@PLT
	movq	%rbx, %rdi
	call	__cxa_begin_catch@PLT
	testq	%r13, %r13
	je	.L1519
	movq	(%rsp), %rbx
.L1529:
	cmpq	%r13, %rbx
	je	.L1536
	movq	(%rbx), %rdi
	leaq	16(%rbx), %rax
	cmpq	%rax, %rdi
	je	.L1538
	call	_ZdlPv@PLT
.L1538:
	addq	$48, %rbx
	jmp	.L1529
.L1547:
	movq	%rax, %rbx
	call	__cxa_end_catch@PLT
	movq	%rbx, %rdi
	call	__cxa_begin_catch@PLT
.L1519:
	movq	8(%rsp), %rax
	movq	(%rax), %rdi
	addq	$16, %rax
	cmpq	%rax, %rdi
	je	.L1536
	call	_ZdlPv@PLT
.L1536:
	cmpq	$0, (%rsp)
	jne	.L1552
	jmp	.L1539
.L1546:
	movq	%rax, %rbx
	call	__cxa_end_catch@PLT
	movq	%rbx, %rdi
.LEHB182:
	call	_Unwind_Resume@PLT
.LEHE182:
	.cfi_endproc
.LFE4516:
	.section	.gcc_except_table
	.align 4
.LLSDA4516:
	.byte	0xff
	.byte	0x9b
	.uleb128 .LLSDATT4516-.LLSDATTD4516
.LLSDATTD4516:
	.byte	0x1
	.uleb128 .LLSDACSE4516-.LLSDACSB4516
.LLSDACSB4516:
	.uleb128 .LEHB175-.LFB4516
	.uleb128 .LEHE175-.LEHB175
	.uleb128 0
	.uleb128 0
	.uleb128 .LEHB176-.LFB4516
	.uleb128 .LEHE176-.LEHB176
	.uleb128 .L1551-.LFB4516
	.uleb128 0x1
	.uleb128 .LEHB177-.LFB4516
	.uleb128 .LEHE177-.LEHB177
	.uleb128 .L1548-.LFB4516
	.uleb128 0x1
	.uleb128 .LEHB178-.LFB4516
	.uleb128 .LEHE178-.LEHB178
	.uleb128 .L1550-.LFB4516
	.uleb128 0x1
	.uleb128 .LEHB179-.LFB4516
	.uleb128 .LEHE179-.LEHB179
	.uleb128 .L1549-.LFB4516
	.uleb128 0x3
	.uleb128 .LEHB180-.LFB4516
	.uleb128 .LEHE180-.LEHB180
	.uleb128 .L1546-.LFB4516
	.uleb128 0
	.uleb128 .LEHB181-.LFB4516
	.uleb128 .LEHE181-.LEHB181
	.uleb128 .L1547-.LFB4516
	.uleb128 0x3
	.uleb128 .LEHB182-.LFB4516
	.uleb128 .LEHE182-.LEHB182
	.uleb128 0
	.uleb128 0
.LLSDACSE4516:
	.byte	0x1
	.byte	0
	.byte	0
	.byte	0x7d
	.align 4
	.long	0

.LLSDATT4516:
	.section	.text._ZNSt6vectorIN2ir9GlobalValESaIS1_EE17_M_realloc_insertIJRKS1_EEEvN9__gnu_cxx17__normal_iteratorIPS1_S3_EEDpOT_,"axG",@progbits,_ZNSt6vectorIN2ir9GlobalValESaIS1_EE17_M_realloc_insertIJRKS1_EEEvN9__gnu_cxx17__normal_iteratorIPS1_S3_EEDpOT_,comdat
	.size	_ZNSt6vectorIN2ir9GlobalValESaIS1_EE17_M_realloc_insertIJRKS1_EEEvN9__gnu_cxx17__normal_iteratorIPS1_S3_EEDpOT_, .-_ZNSt6vectorIN2ir9GlobalValESaIS1_EE17_M_realloc_insertIJRKS1_EEEvN9__gnu_cxx17__normal_iteratorIPS1_S3_EEDpOT_
	.section	.text._ZNSt6vectorIPN2ir11InstructionESaIS2_EE17_M_realloc_insertIJRKS2_EEEvN9__gnu_cxx17__normal_iteratorIPS2_S4_EEDpOT_,"axG",@progbits,_ZNSt6vectorIPN2ir11InstructionESaIS2_EE17_M_realloc_insertIJRKS2_EEEvN9__gnu_cxx17__normal_iteratorIPS2_S4_EEDpOT_,comdat
	.align 2
	.p2align 4,,15
	.weak	_ZNSt6vectorIPN2ir11InstructionESaIS2_EE17_M_realloc_insertIJRKS2_EEEvN9__gnu_cxx17__normal_iteratorIPS2_S4_EEDpOT_
	.type	_ZNSt6vectorIPN2ir11InstructionESaIS2_EE17_M_realloc_insertIJRKS2_EEEvN9__gnu_cxx17__normal_iteratorIPS2_S4_EEDpOT_, @function
_ZNSt6vectorIPN2ir11InstructionESaIS2_EE17_M_realloc_insertIJRKS2_EEEvN9__gnu_cxx17__normal_iteratorIPS2_S4_EEDpOT_:
.LFB4567:
	.cfi_startproc
	pushq	%r15
	.cfi_def_cfa_offset 16
	.cfi_offset 15, -16
	pushq	%r14
	.cfi_def_cfa_offset 24
	.cfi_offset 14, -24
	movq	%rsi, %r14
	pushq	%r13
	.cfi_def_cfa_offset 32
	.cfi_offset 13, -32
	pushq	%r12
	.cfi_def_cfa_offset 40
	.cfi_offset 12, -40
	movq	%rsi, %r12
	pushq	%rbp
	.cfi_def_cfa_offset 48
	.cfi_offset 6, -48
	pushq	%rbx
	.cfi_def_cfa_offset 56
	.cfi_offset 3, -56
	movq	%rdi, %rbp
	subq	$24, %rsp
	.cfi_def_cfa_offset 80
	movq	8(%rdi), %rcx
	movq	(%rdi), %rbx
	movq	%rcx, %rax
	subq	%rbx, %r14
	subq	%rbx, %rax
	sarq	$3, %rax
	testq	%rax, %rax
	je	.L1586
	leaq	(%rax,%rax), %rsi
	movq	$-8, %r15
	cmpq	%rsi, %rax
	jbe	.L1597
.L1580:
	movq	%r15, %rdi
	movq	%rdx, (%rsp)
	call	_Znwm@PLT
	movq	0(%rbp), %rbx
	movq	8(%rbp), %rcx
	movq	%r12, %r8
	movq	(%rsp), %rdx
	movq	%rax, %r13
	addq	%rax, %r15
	subq	%rbx, %r8
.L1581:
	addq	%r13, %r14
	je	.L1582
	movq	(%rdx), %rax
	movq	%rax, (%r14)
.L1582:
	cmpq	%rbx, %r12
	je	.L1583
	movq	%r8, %rdx
	movq	%rbx, %rsi
	movq	%r13, %rdi
	movq	%rcx, 8(%rsp)
	movq	%r8, (%rsp)
	call	memmove@PLT
	movq	8(%rsp), %rcx
	movq	(%rsp), %r8
.L1583:
	movq	%rcx, %r14
	leaq	8(%r13,%r8), %r8
	subq	%r12, %r14
	cmpq	%r12, %rcx
	je	.L1584
	movq	%r8, %rdi
	movq	%r14, %rdx
	movq	%r12, %rsi
	call	memcpy@PLT
	movq	%rax, %r8
.L1584:
	addq	%r8, %r14
	testq	%rbx, %rbx
	je	.L1585
	movq	%rbx, %rdi
	call	_ZdlPv@PLT
.L1585:
	movq	%r13, 0(%rbp)
	movq	%r14, 8(%rbp)
	movq	%r15, 16(%rbp)
	addq	$24, %rsp
	.cfi_remember_state
	.cfi_def_cfa_offset 56
	popq	%rbx
	.cfi_def_cfa_offset 48
	popq	%rbp
	.cfi_def_cfa_offset 40
	popq	%r12
	.cfi_def_cfa_offset 32
	popq	%r13
	.cfi_def_cfa_offset 24
	popq	%r14
	.cfi_def_cfa_offset 16
	popq	%r15
	.cfi_def_cfa_offset 8
	ret
	.p2align 4,,10
	.p2align 3
.L1586:
	.cfi_restore_state
	movl	$1, %esi
.L1579:
	leaq	0(,%rsi,8), %r15
	jmp	.L1580
	.p2align 4,,10
	.p2align 3
.L1597:
	movabsq	$2305843009213693951, %rax
	cmpq	%rax, %rsi
	ja	.L1580
	testq	%rsi, %rsi
	jne	.L1579
	movq	%r14, %r8
	xorl	%r15d, %r15d
	xorl	%r13d, %r13d
	jmp	.L1581
	.cfi_endproc
.LFE4567:
	.size	_ZNSt6vectorIPN2ir11InstructionESaIS2_EE17_M_realloc_insertIJRKS2_EEEvN9__gnu_cxx17__normal_iteratorIPS2_S4_EEDpOT_, .-_ZNSt6vectorIPN2ir11InstructionESaIS2_EE17_M_realloc_insertIJRKS2_EEEvN9__gnu_cxx17__normal_iteratorIPS2_S4_EEDpOT_
	.section	.text._ZNSt6vectorIiSaIiEE17_M_realloc_insertIJRKiEEEvN9__gnu_cxx17__normal_iteratorIPiS1_EEDpOT_,"axG",@progbits,_ZNSt6vectorIiSaIiEE17_M_realloc_insertIJRKiEEEvN9__gnu_cxx17__normal_iteratorIPiS1_EEDpOT_,comdat
	.align 2
	.p2align 4,,15
	.weak	_ZNSt6vectorIiSaIiEE17_M_realloc_insertIJRKiEEEvN9__gnu_cxx17__normal_iteratorIPiS1_EEDpOT_
	.type	_ZNSt6vectorIiSaIiEE17_M_realloc_insertIJRKiEEEvN9__gnu_cxx17__normal_iteratorIPiS1_EEDpOT_, @function
_ZNSt6vectorIiSaIiEE17_M_realloc_insertIJRKiEEEvN9__gnu_cxx17__normal_iteratorIPiS1_EEDpOT_:
.LFB4604:
	.cfi_startproc
	pushq	%r15
	.cfi_def_cfa_offset 16
	.cfi_offset 15, -16
	pushq	%r14
	.cfi_def_cfa_offset 24
	.cfi_offset 14, -24
	movq	%rsi, %r14
	pushq	%r13
	.cfi_def_cfa_offset 32
	.cfi_offset 13, -32
	pushq	%r12
	.cfi_def_cfa_offset 40
	.cfi_offset 12, -40
	movq	%rsi, %r12
	pushq	%rbp
	.cfi_def_cfa_offset 48
	.cfi_offset 6, -48
	pushq	%rbx
	.cfi_def_cfa_offset 56
	.cfi_offset 3, -56
	movq	%rdi, %rbp
	subq	$24, %rsp
	.cfi_def_cfa_offset 80
	movq	8(%rdi), %rcx
	movq	(%rdi), %rbx
	movq	%rcx, %rax
	subq	%rbx, %r14
	subq	%rbx, %rax
	sarq	$2, %rax
	testq	%rax, %rax
	je	.L1606
	leaq	(%rax,%rax), %rsi
	movq	$-4, %r15
	cmpq	%rsi, %rax
	jbe	.L1617
.L1600:
	movq	%r15, %rdi
	movq	%rdx, (%rsp)
	call	_Znwm@PLT
	movq	0(%rbp), %rbx
	movq	8(%rbp), %rcx
	movq	%r12, %r8
	movq	(%rsp), %rdx
	movq	%rax, %r13
	addq	%rax, %r15
	subq	%rbx, %r8
.L1601:
	addq	%r13, %r14
	je	.L1602
	movl	(%rdx), %eax
	movl	%eax, (%r14)
.L1602:
	cmpq	%rbx, %r12
	je	.L1603
	movq	%r8, %rdx
	movq	%rbx, %rsi
	movq	%r13, %rdi
	movq	%rcx, 8(%rsp)
	movq	%r8, (%rsp)
	call	memmove@PLT
	movq	8(%rsp), %rcx
	movq	(%rsp), %r8
.L1603:
	movq	%rcx, %r14
	leaq	4(%r13,%r8), %r8
	subq	%r12, %r14
	cmpq	%r12, %rcx
	je	.L1604
	movq	%r8, %rdi
	movq	%r14, %rdx
	movq	%r12, %rsi
	call	memcpy@PLT
	movq	%rax, %r8
.L1604:
	addq	%r8, %r14
	testq	%rbx, %rbx
	je	.L1605
	movq	%rbx, %rdi
	call	_ZdlPv@PLT
.L1605:
	movq	%r13, 0(%rbp)
	movq	%r14, 8(%rbp)
	movq	%r15, 16(%rbp)
	addq	$24, %rsp
	.cfi_remember_state
	.cfi_def_cfa_offset 56
	popq	%rbx
	.cfi_def_cfa_offset 48
	popq	%rbp
	.cfi_def_cfa_offset 40
	popq	%r12
	.cfi_def_cfa_offset 32
	popq	%r13
	.cfi_def_cfa_offset 24
	popq	%r14
	.cfi_def_cfa_offset 16
	popq	%r15
	.cfi_def_cfa_offset 8
	ret
	.p2align 4,,10
	.p2align 3
.L1606:
	.cfi_restore_state
	movl	$1, %esi
.L1599:
	leaq	0(,%rsi,4), %r15
	jmp	.L1600
	.p2align 4,,10
	.p2align 3
.L1617:
	movabsq	$4611686018427387903, %rax
	cmpq	%rax, %rsi
	ja	.L1600
	testq	%rsi, %rsi
	jne	.L1599
	movq	%r14, %r8
	xorl	%r15d, %r15d
	xorl	%r13d, %r13d
	jmp	.L1601
	.cfi_endproc
.LFE4604:
	.size	_ZNSt6vectorIiSaIiEE17_M_realloc_insertIJRKiEEEvN9__gnu_cxx17__normal_iteratorIPiS1_EEDpOT_, .-_ZNSt6vectorIiSaIiEE17_M_realloc_insertIJRKiEEEvN9__gnu_cxx17__normal_iteratorIPiS1_EEDpOT_
	.section	.text._ZNSt6vectorIiSaIiEE12emplace_backIJiEEEvDpOT_,"axG",@progbits,_ZNSt6vectorIiSaIiEE12emplace_backIJiEEEvDpOT_,comdat
	.align 2
	.p2align 4,,15
	.weak	_ZNSt6vectorIiSaIiEE12emplace_backIJiEEEvDpOT_
	.type	_ZNSt6vectorIiSaIiEE12emplace_backIJiEEEvDpOT_, @function
_ZNSt6vectorIiSaIiEE12emplace_backIJiEEEvDpOT_:
.LFB4605:
	.cfi_startproc
	pushq	%r15
	.cfi_def_cfa_offset 16
	.cfi_offset 15, -16
	pushq	%r14
	.cfi_def_cfa_offset 24
	.cfi_offset 14, -24
	pushq	%r13
	.cfi_def_cfa_offset 32
	.cfi_offset 13, -32
	pushq	%r12
	.cfi_def_cfa_offset 40
	.cfi_offset 12, -40
	pushq	%rbp
	.cfi_def_cfa_offset 48
	.cfi_offset 6, -48
	pushq	%rbx
	.cfi_def_cfa_offset 56
	.cfi_offset 3, -56
	subq	$8, %rsp
	.cfi_def_cfa_offset 64
	movq	8(%rdi), %rbx
	cmpq	16(%rdi), %rbx
	je	.L1619
	testq	%rbx, %rbx
	je	.L1620
	movl	(%rsi), %eax
	movl	%eax, (%rbx)
.L1620:
	addq	$4, %rbx
	movq	%rbx, 8(%rdi)
	addq	$8, %rsp
	.cfi_remember_state
	.cfi_def_cfa_offset 56
	popq	%rbx
	.cfi_def_cfa_offset 48
	popq	%rbp
	.cfi_def_cfa_offset 40
	popq	%r12
	.cfi_def_cfa_offset 32
	popq	%r13
	.cfi_def_cfa_offset 24
	popq	%r14
	.cfi_def_cfa_offset 16
	popq	%r15
	.cfi_def_cfa_offset 8
	ret
	.p2align 4,,10
	.p2align 3
.L1619:
	.cfi_restore_state
	movq	%rbx, %r14
	subq	(%rdi), %r14
	movq	%rsi, %r12
	movq	%rdi, %rbp
	movq	%r14, %rax
	sarq	$2, %rax
	testq	%rax, %rax
	je	.L1628
	leaq	(%rax,%rax), %rdx
	movq	$-4, %r15
	cmpq	%rdx, %rax
	jbe	.L1643
.L1622:
	movq	%r15, %rdi
	call	_Znwm@PLT
	movq	%rax, %r13
.L1623:
	addq	%r13, %r14
	je	.L1624
	movl	(%r12), %eax
	movl	%eax, (%r14)
.L1624:
	movq	0(%rbp), %r12
	movq	%rbx, %r14
	subq	%r12, %r14
	cmpq	%rbx, %r12
	je	.L1625
	movq	%r14, %rdx
	movq	%r12, %rsi
	movq	%r13, %rdi
	call	memmove@PLT
.L1625:
	movq	8(%rbp), %rax
	leaq	4(%r13,%r14), %rcx
	movq	%rax, %r14
	subq	%rbx, %r14
	cmpq	%rbx, %rax
	je	.L1626
	movq	%rcx, %rdi
	movq	%r14, %rdx
	movq	%rbx, %rsi
	call	memmove@PLT
	movq	%rax, %rcx
.L1626:
	addq	%rcx, %r14
	testq	%r12, %r12
	je	.L1627
	movq	%r12, %rdi
	call	_ZdlPv@PLT
.L1627:
	movq	%r13, 0(%rbp)
	addq	%r15, %r13
	movq	%r14, 8(%rbp)
	movq	%r13, 16(%rbp)
	addq	$8, %rsp
	.cfi_remember_state
	.cfi_def_cfa_offset 56
	popq	%rbx
	.cfi_def_cfa_offset 48
	popq	%rbp
	.cfi_def_cfa_offset 40
	popq	%r12
	.cfi_def_cfa_offset 32
	popq	%r13
	.cfi_def_cfa_offset 24
	popq	%r14
	.cfi_def_cfa_offset 16
	popq	%r15
	.cfi_def_cfa_offset 8
	ret
	.p2align 4,,10
	.p2align 3
.L1628:
	.cfi_restore_state
	movl	$4, %r15d
	jmp	.L1622
	.p2align 4,,10
	.p2align 3
.L1643:
	movabsq	$4611686018427387903, %rcx
	cmpq	%rcx, %rdx
	ja	.L1622
	xorl	%r15d, %r15d
	xorl	%r13d, %r13d
	testq	%rdx, %rdx
	je	.L1623
	leaq	0(,%rax,8), %r15
	jmp	.L1622
	.cfi_endproc
.LFE4605:
	.size	_ZNSt6vectorIiSaIiEE12emplace_backIJiEEEvDpOT_, .-_ZNSt6vectorIiSaIiEE12emplace_backIJiEEEvDpOT_
	.section	.text._ZNSt6vectorIN2ir7OperandESaIS1_EE17_M_realloc_insertIJRKS1_EEEvN9__gnu_cxx17__normal_iteratorIPS1_S3_EEDpOT_,"axG",@progbits,_ZNSt6vectorIN2ir7OperandESaIS1_EE17_M_realloc_insertIJRKS1_EEEvN9__gnu_cxx17__normal_iteratorIPS1_S3_EEDpOT_,comdat
	.align 2
	.p2align 4,,15
	.weak	_ZNSt6vectorIN2ir7OperandESaIS1_EE17_M_realloc_insertIJRKS1_EEEvN9__gnu_cxx17__normal_iteratorIPS1_S3_EEDpOT_
	.type	_ZNSt6vectorIN2ir7OperandESaIS1_EE17_M_realloc_insertIJRKS1_EEEvN9__gnu_cxx17__normal_iteratorIPS1_S3_EEDpOT_, @function
_ZNSt6vectorIN2ir7OperandESaIS1_EE17_M_realloc_insertIJRKS1_EEEvN9__gnu_cxx17__normal_iteratorIPS1_S3_EEDpOT_:
.LFB4609:
	.cfi_startproc
	.cfi_personality 0x9b,DW.ref.__gxx_personality_v0
	.cfi_lsda 0x1b,.LLSDA4609
	pushq	%r15
	.cfi_def_cfa_offset 16
	.cfi_offset 15, -16
	pushq	%r14
	.cfi_def_cfa_offset 24
	.cfi_offset 14, -24
	movq	%rdx, %r15
	pushq	%r13
	.cfi_def_cfa_offset 32
	.cfi_offset 13, -32
	pushq	%r12
	.cfi_def_cfa_offset 40
	.cfi_offset 12, -40
	movabsq	$-3689348814741910323, %rcx
	pushq	%rbp
	.cfi_def_cfa_offset 48
	.cfi_offset 6, -48
	pushq	%rbx
	.cfi_def_cfa_offset 56
	.cfi_offset 3, -56
	movq	%rsi, %rbx
	movq	%rdi, %r12
	movq	%rsi, %r13
	movq	%rsi, %rbp
	subq	$24, %rsp
	.cfi_def_cfa_offset 80
	movq	(%rdi), %rdx
	movq	8(%rdi), %rax
	subq	%rdx, %rax
	subq	%rdx, %rbx
	sarq	$3, %rax
	imulq	%rcx, %rax
	testq	%rax, %rax
	je	.L1686
	leaq	(%rax,%rax), %r14
	cmpq	%r14, %rax
	jbe	.L1710
.L1688:
	movq	$-16, %r14
.L1646:
	movq	%r14, %rdi
.LEHB183:
	call	_Znwm@PLT
.LEHE183:
	movq	%rax, (%rsp)
.L1647:
	addq	(%rsp), %rbx
	movq	%rbx, 8(%rsp)
	je	.L1651
	movq	%rbx, %rdi
	movq	%r15, %rsi
.LEHB184:
	call	_ZN2ir7OperandC1ERKS0_@PLT
.LEHE184:
.L1651:
	movq	(%r12), %r15
	cmpq	%r13, %r15
	je	.L1649
	movq	(%rsp), %rbx
	jmp	.L1650
	.p2align 4,,10
	.p2align 3
.L1711:
	movq	%rax, %rbx
.L1650:
	testq	%rbx, %rbx
	je	.L1654
	movq	%r15, %rsi
	movq	%rbx, %rdi
.LEHB185:
	call	_ZN2ir7OperandC1ERKS0_@PLT
.LEHE185:
.L1654:
	addq	$40, %r15
	leaq	40(%rbx), %rax
	cmpq	%r15, %r13
	jne	.L1711
	movq	8(%r12), %r15
	addq	$80, %rbx
	cmpq	%r13, %r15
	je	.L1655
.L1709:
	movq	%rbx, %r13
	.p2align 4,,10
	.p2align 3
.L1665:
	testq	%rbx, %rbx
	je	.L1666
	movq	%rbp, %rsi
	movq	%rbx, %rdi
.LEHB186:
	call	_ZN2ir7OperandC1ERKS0_@PLT
.LEHE186:
.L1666:
	addq	$40, %rbp
	addq	$40, %rbx
	cmpq	%r15, %rbp
	jne	.L1665
	movq	8(%r12), %rbp
.L1655:
	movq	(%r12), %rax
	cmpq	%rbp, %rax
	je	.L1667
	leaq	40(%rax), %r13
	subq	%r13, %rbp
	shrq	$3, %rbp
	leaq	40(%rax,%rbp,8), %rbp
	jmp	.L1675
	.p2align 4,,10
	.p2align 3
.L1712:
	call	_ZdlPv@PLT
	cmpq	%r13, %rbp
	movq	%r13, %rax
	je	.L1677
.L1678:
	addq	$40, %r13
.L1675:
	movq	(%rax), %rdi
	addq	$16, %rax
	cmpq	%rax, %rdi
	jne	.L1712
	cmpq	%r13, %rbp
	movq	%r13, %rax
	jne	.L1678
.L1677:
	movq	(%r12), %rbp
.L1667:
	testq	%rbp, %rbp
	je	.L1679
	movq	%rbp, %rdi
	call	_ZdlPv@PLT
.L1679:
	movq	(%rsp), %rax
	movq	%rbx, 8(%r12)
	addq	%rax, %r14
	movq	%rax, (%r12)
	movq	%r14, 16(%r12)
	addq	$24, %rsp
	.cfi_remember_state
	.cfi_def_cfa_offset 56
	popq	%rbx
	.cfi_def_cfa_offset 48
	popq	%rbp
	.cfi_def_cfa_offset 40
	popq	%r12
	.cfi_def_cfa_offset 32
	popq	%r13
	.cfi_def_cfa_offset 24
	popq	%r14
	.cfi_def_cfa_offset 16
	popq	%r15
	.cfi_def_cfa_offset 8
	ret
	.p2align 4,,10
	.p2align 3
.L1686:
	.cfi_restore_state
	movl	$1, %r14d
.L1645:
	leaq	(%r14,%r14,4), %r14
	salq	$3, %r14
	jmp	.L1646
	.p2align 4,,10
	.p2align 3
.L1710:
	movabsq	$461168601842738790, %rax
	cmpq	%rax, %r14
	ja	.L1688
	testq	%r14, %r14
	jne	.L1645
	movq	$0, (%rsp)
	jmp	.L1647
	.p2align 4,,10
	.p2align 3
.L1649:
	movq	8(%r12), %r15
	movq	(%rsp), %rax
	cmpq	%r15, %r13
	leaq	40(%rax), %rbx
	jne	.L1709
	jmp	.L1667
.L1694:
	movq	%rax, %rdi
	movq	%r13, %rbp
	call	__cxa_begin_catch@PLT
.L1672:
	cmpq	%rbx, %rbp
	je	.L1670
	movq	0(%rbp), %rdi
	leaq	16(%rbp), %rax
	cmpq	%rax, %rdi
	je	.L1671
	call	_ZdlPv@PLT
.L1671:
	addq	$40, %rbp
	jmp	.L1672
.L1670:
.LEHB187:
	call	__cxa_rethrow@PLT
.LEHE187:
.L1695:
	movq	%rax, %rdi
	call	__cxa_begin_catch@PLT
	cmpq	$0, (%rsp)
	je	.L1662
.L1696:
	movq	(%rsp), %rdi
	call	_ZdlPv@PLT
.L1684:
.LEHB188:
	call	__cxa_rethrow@PLT
.LEHE188:
.L1692:
	movq	%rax, %rdi
	call	__cxa_begin_catch@PLT
	movq	(%rsp), %rbp
.L1660:
	cmpq	%rbp, %rbx
	je	.L1658
	movq	0(%rbp), %rdi
	leaq	16(%rbp), %rax
	cmpq	%rax, %rdi
	je	.L1659
	call	_ZdlPv@PLT
.L1659:
	addq	$40, %rbp
	jmp	.L1660
.L1658:
.LEHB189:
	call	__cxa_rethrow@PLT
.LEHE189:
.L1693:
	movq	%rax, %rbx
	call	__cxa_end_catch@PLT
	movq	%rbx, %rdi
	call	__cxa_begin_catch@PLT
	testq	%r13, %r13
	je	.L1662
	movq	(%rsp), %rbx
.L1674:
	cmpq	%r13, %rbx
	je	.L1681
	movq	(%rbx), %rdi
	leaq	16(%rbx), %rax
	cmpq	%rax, %rdi
	je	.L1683
	call	_ZdlPv@PLT
.L1683:
	addq	$40, %rbx
	jmp	.L1674
.L1691:
	movq	%rax, %rbx
	call	__cxa_end_catch@PLT
	movq	%rbx, %rdi
	call	__cxa_begin_catch@PLT
.L1662:
	movq	8(%rsp), %rax
	movq	(%rax), %rdi
	addq	$16, %rax
	cmpq	%rax, %rdi
	je	.L1681
	call	_ZdlPv@PLT
.L1681:
	cmpq	$0, (%rsp)
	jne	.L1696
	jmp	.L1684
.L1690:
	movq	%rax, %rbx
	call	__cxa_end_catch@PLT
	movq	%rbx, %rdi
.LEHB190:
	call	_Unwind_Resume@PLT
.LEHE190:
	.cfi_endproc
.LFE4609:
	.section	.gcc_except_table
	.align 4
.LLSDA4609:
	.byte	0xff
	.byte	0x9b
	.uleb128 .LLSDATT4609-.LLSDATTD4609
.LLSDATTD4609:
	.byte	0x1
	.uleb128 .LLSDACSE4609-.LLSDACSB4609
.LLSDACSB4609:
	.uleb128 .LEHB183-.LFB4609
	.uleb128 .LEHE183-.LEHB183
	.uleb128 0
	.uleb128 0
	.uleb128 .LEHB184-.LFB4609
	.uleb128 .LEHE184-.LEHB184
	.uleb128 .L1695-.LFB4609
	.uleb128 0x1
	.uleb128 .LEHB185-.LFB4609
	.uleb128 .LEHE185-.LEHB185
	.uleb128 .L1692-.LFB4609
	.uleb128 0x1
	.uleb128 .LEHB186-.LFB4609
	.uleb128 .LEHE186-.LEHB186
	.uleb128 .L1694-.LFB4609
	.uleb128 0x1
	.uleb128 .LEHB187-.LFB4609
	.uleb128 .LEHE187-.LEHB187
	.uleb128 .L1693-.LFB4609
	.uleb128 0x3
	.uleb128 .LEHB188-.LFB4609
	.uleb128 .LEHE188-.LEHB188
	.uleb128 .L1690-.LFB4609
	.uleb128 0
	.uleb128 .LEHB189-.LFB4609
	.uleb128 .LEHE189-.LEHB189
	.uleb128 .L1691-.LFB4609
	.uleb128 0x3
	.uleb128 .LEHB190-.LFB4609
	.uleb128 .LEHE190-.LEHB190
	.uleb128 0
	.uleb128 0
.LLSDACSE4609:
	.byte	0x1
	.byte	0
	.byte	0
	.byte	0x7d
	.align 4
	.long	0

.LLSDATT4609:
	.section	.text._ZNSt6vectorIN2ir7OperandESaIS1_EE17_M_realloc_insertIJRKS1_EEEvN9__gnu_cxx17__normal_iteratorIPS1_S3_EEDpOT_,"axG",@progbits,_ZNSt6vectorIN2ir7OperandESaIS1_EE17_M_realloc_insertIJRKS1_EEEvN9__gnu_cxx17__normal_iteratorIPS1_S3_EEDpOT_,comdat
	.size	_ZNSt6vectorIN2ir7OperandESaIS1_EE17_M_realloc_insertIJRKS1_EEEvN9__gnu_cxx17__normal_iteratorIPS1_S3_EEDpOT_, .-_ZNSt6vectorIN2ir7OperandESaIS1_EE17_M_realloc_insertIJRKS1_EEEvN9__gnu_cxx17__normal_iteratorIPS1_S3_EEDpOT_
	.section	.text._ZNSt8_Rb_treeIPN2ir11InstructionES2_St9_IdentityIS2_ESt4lessIS2_ESaIS2_EE8_M_eraseEPSt13_Rb_tree_nodeIS2_E,"axG",@progbits,_ZNSt8_Rb_treeIPN2ir11InstructionES2_St9_IdentityIS2_ESt4lessIS2_ESaIS2_EE8_M_eraseEPSt13_Rb_tree_nodeIS2_E,comdat
	.align 2
	.p2align 4,,15
	.weak	_ZNSt8_Rb_treeIPN2ir11InstructionES2_St9_IdentityIS2_ESt4lessIS2_ESaIS2_EE8_M_eraseEPSt13_Rb_tree_nodeIS2_E
	.type	_ZNSt8_Rb_treeIPN2ir11InstructionES2_St9_IdentityIS2_ESt4lessIS2_ESaIS2_EE8_M_eraseEPSt13_Rb_tree_nodeIS2_E, @function
_ZNSt8_Rb_treeIPN2ir11InstructionES2_St9_IdentityIS2_ESt4lessIS2_ESaIS2_EE8_M_eraseEPSt13_Rb_tree_nodeIS2_E:
.LFB4619:
	.cfi_startproc
	pushq	%r15
	.cfi_def_cfa_offset 16
	.cfi_offset 15, -16
	pushq	%r14
	.cfi_def_cfa_offset 24
	.cfi_offset 14, -24
	pushq	%r13
	.cfi_def_cfa_offset 32
	.cfi_offset 13, -32
	pushq	%r12
	.cfi_def_cfa_offset 40
	.cfi_offset 12, -40
	pushq	%rbp
	.cfi_def_cfa_offset 48
	.cfi_offset 6, -48
	pushq	%rbx
	.cfi_def_cfa_offset 56
	.cfi_offset 3, -56
	subq	$56, %rsp
	.cfi_def_cfa_offset 112
	testq	%rsi, %rsi
	movq	%rsi, 40(%rsp)
	je	.L1713
	movq	%rdi, %rbp
	movq	%rsi, %rax
.L1731:
	movq	24(%rax), %rax
	testq	%rax, %rax
	movq	%rax, 32(%rsp)
	je	.L1715
.L1730:
	movq	24(%rax), %rax
	testq	%rax, %rax
	movq	%rax, 24(%rsp)
	je	.L1716
.L1729:
	movq	24(%rax), %rax
	testq	%rax, %rax
	movq	%rax, 16(%rsp)
	je	.L1717
.L1728:
	movq	24(%rax), %rax
	testq	%rax, %rax
	movq	%rax, 8(%rsp)
	je	.L1718
.L1727:
	movq	24(%rax), %r13
	testq	%r13, %r13
	je	.L1719
.L1726:
	movq	24(%r13), %r12
	testq	%r12, %r12
	je	.L1720
.L1725:
	movq	24(%r12), %r15
	testq	%r15, %r15
	je	.L1721
.L1724:
	movq	24(%r15), %r14
	testq	%r14, %r14
	je	.L1722
.L1723:
	movq	24(%r14), %rsi
	movq	%rbp, %rdi
	call	_ZNSt8_Rb_treeIPN2ir11InstructionES2_St9_IdentityIS2_ESt4lessIS2_ESaIS2_EE8_M_eraseEPSt13_Rb_tree_nodeIS2_E
	movq	16(%r14), %rbx
	movq	%r14, %rdi
	call	_ZdlPv@PLT
	testq	%rbx, %rbx
	movq	%rbx, %r14
	jne	.L1723
.L1722:
	movq	16(%r15), %rbx
	movq	%r15, %rdi
	call	_ZdlPv@PLT
	testq	%rbx, %rbx
	movq	%rbx, %r15
	jne	.L1724
.L1721:
	movq	16(%r12), %rbx
	movq	%r12, %rdi
	call	_ZdlPv@PLT
	testq	%rbx, %rbx
	movq	%rbx, %r12
	jne	.L1725
.L1720:
	movq	16(%r13), %rbx
	movq	%r13, %rdi
	call	_ZdlPv@PLT
	testq	%rbx, %rbx
	movq	%rbx, %r13
	jne	.L1726
.L1719:
	movq	8(%rsp), %rdi
	movq	16(%rdi), %rbx
	call	_ZdlPv@PLT
	testq	%rbx, %rbx
	movq	%rbx, %rax
	movq	%rbx, 8(%rsp)
	jne	.L1727
.L1718:
	movq	16(%rsp), %rdi
	movq	16(%rdi), %rbx
	call	_ZdlPv@PLT
	testq	%rbx, %rbx
	movq	%rbx, %rax
	movq	%rbx, 16(%rsp)
	jne	.L1728
.L1717:
	movq	24(%rsp), %rdi
	movq	16(%rdi), %rbx
	call	_ZdlPv@PLT
	testq	%rbx, %rbx
	movq	%rbx, %rax
	movq	%rbx, 24(%rsp)
	jne	.L1729
.L1716:
	movq	32(%rsp), %rdi
	movq	16(%rdi), %rbx
	call	_ZdlPv@PLT
	testq	%rbx, %rbx
	movq	%rbx, %rax
	movq	%rbx, 32(%rsp)
	jne	.L1730
.L1715:
	movq	40(%rsp), %rdi
	movq	16(%rdi), %rbx
	call	_ZdlPv@PLT
	testq	%rbx, %rbx
	movq	%rbx, %rax
	movq	%rbx, 40(%rsp)
	jne	.L1731
.L1713:
	addq	$56, %rsp
	.cfi_def_cfa_offset 56
	popq	%rbx
	.cfi_def_cfa_offset 48
	popq	%rbp
	.cfi_def_cfa_offset 40
	popq	%r12
	.cfi_def_cfa_offset 32
	popq	%r13
	.cfi_def_cfa_offset 24
	popq	%r14
	.cfi_def_cfa_offset 16
	popq	%r15
	.cfi_def_cfa_offset 8
	ret
	.cfi_endproc
.LFE4619:
	.size	_ZNSt8_Rb_treeIPN2ir11InstructionES2_St9_IdentityIS2_ESt4lessIS2_ESaIS2_EE8_M_eraseEPSt13_Rb_tree_nodeIS2_E, .-_ZNSt8_Rb_treeIPN2ir11InstructionES2_St9_IdentityIS2_ESt4lessIS2_ESaIS2_EE8_M_eraseEPSt13_Rb_tree_nodeIS2_E
	.section	.text._ZNSt3setIPN2ir11InstructionESt4lessIS2_ESaIS2_EED2Ev,"axG",@progbits,_ZNSt3setIPN2ir11InstructionESt4lessIS2_ESaIS2_EED5Ev,comdat
	.align 2
	.p2align 4,,15
	.weak	_ZNSt3setIPN2ir11InstructionESt4lessIS2_ESaIS2_EED2Ev
	.type	_ZNSt3setIPN2ir11InstructionESt4lessIS2_ESaIS2_EED2Ev, @function
_ZNSt3setIPN2ir11InstructionESt4lessIS2_ESaIS2_EED2Ev:
.LFB3694:
	.cfi_startproc
	pushq	%r12
	.cfi_def_cfa_offset 16
	.cfi_offset 12, -16
	pushq	%rbp
	.cfi_def_cfa_offset 24
	.cfi_offset 6, -24
	pushq	%rbx
	.cfi_def_cfa_offset 32
	.cfi_offset 3, -32
	movq	16(%rdi), %rbx
	testq	%rbx, %rbx
	je	.L1769
	movq	%rdi, %r12
.L1771:
	movq	24(%rbx), %rsi
	movq	%r12, %rdi
	call	_ZNSt8_Rb_treeIPN2ir11InstructionES2_St9_IdentityIS2_ESt4lessIS2_ESaIS2_EE8_M_eraseEPSt13_Rb_tree_nodeIS2_E
	movq	16(%rbx), %rbp
	movq	%rbx, %rdi
	call	_ZdlPv@PLT
	testq	%rbp, %rbp
	movq	%rbp, %rbx
	jne	.L1771
.L1769:
	popq	%rbx
	.cfi_def_cfa_offset 24
	popq	%rbp
	.cfi_def_cfa_offset 16
	popq	%r12
	.cfi_def_cfa_offset 8
	ret
	.cfi_endproc
.LFE3694:
	.size	_ZNSt3setIPN2ir11InstructionESt4lessIS2_ESaIS2_EED2Ev, .-_ZNSt3setIPN2ir11InstructionESt4lessIS2_ESaIS2_EED2Ev
	.weak	_ZNSt3setIPN2ir11InstructionESt4lessIS2_ESaIS2_EED1Ev
	.set	_ZNSt3setIPN2ir11InstructionESt4lessIS2_ESaIS2_EED1Ev,_ZNSt3setIPN2ir11InstructionESt4lessIS2_ESaIS2_EED2Ev
	.section	.text._ZNSt8_Rb_treeIPN2ir11InstructionES2_St9_IdentityIS2_ESt4lessIS2_ESaIS2_EE16_M_insert_uniqueIRKS2_EESt4pairISt17_Rb_tree_iteratorIS2_EbEOT_,"axG",@progbits,_ZNSt8_Rb_treeIPN2ir11InstructionES2_St9_IdentityIS2_ESt4lessIS2_ESaIS2_EE16_M_insert_uniqueIRKS2_EESt4pairISt17_Rb_tree_iteratorIS2_EbEOT_,comdat
	.align 2
	.p2align 4,,15
	.weak	_ZNSt8_Rb_treeIPN2ir11InstructionES2_St9_IdentityIS2_ESt4lessIS2_ESaIS2_EE16_M_insert_uniqueIRKS2_EESt4pairISt17_Rb_tree_iteratorIS2_EbEOT_
	.type	_ZNSt8_Rb_treeIPN2ir11InstructionES2_St9_IdentityIS2_ESt4lessIS2_ESaIS2_EE16_M_insert_uniqueIRKS2_EESt4pairISt17_Rb_tree_iteratorIS2_EbEOT_, @function
_ZNSt8_Rb_treeIPN2ir11InstructionES2_St9_IdentityIS2_ESt4lessIS2_ESaIS2_EE16_M_insert_uniqueIRKS2_EESt4pairISt17_Rb_tree_iteratorIS2_EbEOT_:
.LFB4621:
	.cfi_startproc
	pushq	%r15
	.cfi_def_cfa_offset 16
	.cfi_offset 15, -16
	pushq	%r14
	.cfi_def_cfa_offset 24
	.cfi_offset 14, -24
	leaq	8(%rdi), %r14
	pushq	%r13
	.cfi_def_cfa_offset 32
	.cfi_offset 13, -32
	pushq	%r12
	.cfi_def_cfa_offset 40
	.cfi_offset 12, -40
	movq	%rsi, %r12
	pushq	%rbp
	.cfi_def_cfa_offset 48
	.cfi_offset 6, -48
	pushq	%rbx
	.cfi_def_cfa_offset 56
	.cfi_offset 3, -56
	movq	%rdi, %rbp
	subq	$8, %rsp
	.cfi_def_cfa_offset 64
	movq	16(%rdi), %rbx
	testq	%rbx, %rbx
	je	.L1788
	movq	(%rsi), %r8
	jmp	.L1779
	.p2align 4,,10
	.p2align 3
.L1796:
	movq	16(%rbx), %rax
	movl	$1, %r9d
	testq	%rax, %rax
	je	.L1780
.L1797:
	movq	%rax, %rbx
.L1779:
	movq	32(%rbx), %rdi
	cmpq	%rdi, %r8
	jb	.L1796
	movq	24(%rbx), %rax
	xorl	%r9d, %r9d
	testq	%rax, %rax
	jne	.L1797
.L1780:
	testb	%r9b, %r9b
	movq	%rbx, %r13
	jne	.L1778
	cmpq	%rdi, %r8
	ja	.L1784
.L1794:
	addq	$8, %rsp
	.cfi_remember_state
	.cfi_def_cfa_offset 56
	movq	%rbx, %rax
	xorl	%edx, %edx
	popq	%rbx
	.cfi_def_cfa_offset 48
	popq	%rbp
	.cfi_def_cfa_offset 40
	popq	%r12
	.cfi_def_cfa_offset 32
	popq	%r13
	.cfi_def_cfa_offset 24
	popq	%r14
	.cfi_def_cfa_offset 16
	popq	%r15
	.cfi_def_cfa_offset 8
	ret
	.p2align 4,,10
	.p2align 3
.L1788:
	.cfi_restore_state
	movq	%r14, %rbx
.L1778:
	cmpq	%rbx, 24(%rbp)
	je	.L1790
	movq	%rbx, %rdi
	movq	%rbx, %r13
	call	_ZSt18_Rb_tree_decrementPSt18_Rb_tree_node_base@PLT
	movq	(%r12), %r8
	movq	32(%rax), %rdi
	movq	%rax, %rbx
	cmpq	%rdi, %r8
	jbe	.L1794
.L1784:
	cmpq	%r13, %r14
	movl	$1, %r15d
	jne	.L1798
.L1785:
	movl	$40, %edi
	call	_Znwm@PLT
	movq	%rax, %rbx
	movq	(%r12), %rax
	movq	%r13, %rdx
	movq	%r14, %rcx
	movq	%rbx, %rsi
	movl	%r15d, %edi
	movq	%rax, 32(%rbx)
	call	_ZSt29_Rb_tree_insert_and_rebalancebPSt18_Rb_tree_node_baseS0_RS_@PLT
	addq	$1, 40(%rbp)
	addq	$8, %rsp
	.cfi_remember_state
	.cfi_def_cfa_offset 56
	movq	%rbx, %rax
	movl	$1, %edx
	popq	%rbx
	.cfi_def_cfa_offset 48
	popq	%rbp
	.cfi_def_cfa_offset 40
	popq	%r12
	.cfi_def_cfa_offset 32
	popq	%r13
	.cfi_def_cfa_offset 24
	popq	%r14
	.cfi_def_cfa_offset 16
	popq	%r15
	.cfi_def_cfa_offset 8
	ret
	.p2align 4,,10
	.p2align 3
.L1790:
	.cfi_restore_state
	movq	%rbx, %r13
	movl	$1, %r15d
	cmpq	%r13, %r14
	je	.L1785
.L1798:
	xorl	%r15d, %r15d
	movq	32(%r13), %rax
	cmpq	%rax, (%r12)
	setb	%r15b
	jmp	.L1785
	.cfi_endproc
.LFE4621:
	.size	_ZNSt8_Rb_treeIPN2ir11InstructionES2_St9_IdentityIS2_ESt4lessIS2_ESaIS2_EE16_M_insert_uniqueIRKS2_EESt4pairISt17_Rb_tree_iteratorIS2_EbEOT_, .-_ZNSt8_Rb_treeIPN2ir11InstructionES2_St9_IdentityIS2_ESt4lessIS2_ESaIS2_EE16_M_insert_uniqueIRKS2_EESt4pairISt17_Rb_tree_iteratorIS2_EbEOT_
	.section	.text._ZNSt8_Rb_treeINSt7__cxx1112basic_stringIcSt11char_traitsIcESaIcEEESt4pairIKS5_PN2ir8FunctionEESt10_Select1stISB_ESt4lessIS5_ESaISB_EE4findERS7_,"axG",@progbits,_ZNSt8_Rb_treeINSt7__cxx1112basic_stringIcSt11char_traitsIcESaIcEEESt4pairIKS5_PN2ir8FunctionEESt10_Select1stISB_ESt4lessIS5_ESaISB_EE4findERS7_,comdat
	.align 2
	.p2align 4,,15
	.weak	_ZNSt8_Rb_treeINSt7__cxx1112basic_stringIcSt11char_traitsIcESaIcEEESt4pairIKS5_PN2ir8FunctionEESt10_Select1stISB_ESt4lessIS5_ESaISB_EE4findERS7_
	.type	_ZNSt8_Rb_treeINSt7__cxx1112basic_stringIcSt11char_traitsIcESaIcEEESt4pairIKS5_PN2ir8FunctionEESt10_Select1stISB_ESt4lessIS5_ESaISB_EE4findERS7_, @function
_ZNSt8_Rb_treeINSt7__cxx1112basic_stringIcSt11char_traitsIcESaIcEEESt4pairIKS5_PN2ir8FunctionEESt10_Select1stISB_ESt4lessIS5_ESaISB_EE4findERS7_:
.LFB4641:
	.cfi_startproc
	pushq	%r15
	.cfi_def_cfa_offset 16
	.cfi_offset 15, -16
	pushq	%r14
	.cfi_def_cfa_offset 24
	.cfi_offset 14, -24
	pushq	%r13
	.cfi_def_cfa_offset 32
	.cfi_offset 13, -32
	pushq	%r12
	.cfi_def_cfa_offset 40
	.cfi_offset 12, -40
	leaq	8(%rdi), %r13
	pushq	%rbp
	.cfi_def_cfa_offset 48
	.cfi_offset 6, -48
	pushq	%rbx
	.cfi_def_cfa_offset 56
	.cfi_offset 3, -56
	subq	$8, %rsp
	.cfi_def_cfa_offset 64
	movq	16(%rdi), %rbp
	testq	%rbp, %rbp
	je	.L1811
	movq	8(%rsi), %r12
	movq	(%rsi), %r14
	movq	%r13, %r15
	jmp	.L1801
	.p2align 4,,10
	.p2align 3
.L1806:
	movq	24(%rbp), %rbp
	testq	%rbp, %rbp
	je	.L1802
.L1801:
	movq	40(%rbp), %rbx
	movq	%r12, %rdx
	cmpq	%r12, %rbx
	cmovbe	%rbx, %rdx
	testq	%rdx, %rdx
	je	.L1803
	movq	32(%rbp), %rdi
	movq	%r14, %rsi
	call	memcmp@PLT
	testl	%eax, %eax
	jne	.L1804
.L1803:
	subq	%r12, %rbx
	cmpq	$2147483647, %rbx
	jg	.L1805
	cmpq	$-2147483648, %rbx
	jl	.L1806
	movl	%ebx, %eax
.L1804:
	testl	%eax, %eax
	js	.L1806
.L1805:
	movq	%rbp, %r15
	movq	16(%rbp), %rbp
	testq	%rbp, %rbp
	jne	.L1801
.L1802:
	cmpq	%r15, %r13
	je	.L1800
	movq	40(%r15), %rbx
	cmpq	%rbx, %r12
	movq	%rbx, %rdx
	cmovbe	%r12, %rdx
	testq	%rdx, %rdx
	jne	.L1820
	subq	%rbx, %r12
	cmpq	$2147483647, %r12
	jg	.L1800
.L1821:
	cmpq	$-2147483648, %r12
	jl	.L1811
	movl	%r12d, %eax
.L1809:
	testl	%eax, %eax
	cmovs	%r13, %r15
.L1800:
	addq	$8, %rsp
	.cfi_remember_state
	.cfi_def_cfa_offset 56
	movq	%r15, %rax
	popq	%rbx
	.cfi_def_cfa_offset 48
	popq	%rbp
	.cfi_def_cfa_offset 40
	popq	%r12
	.cfi_def_cfa_offset 32
	popq	%r13
	.cfi_def_cfa_offset 24
	popq	%r14
	.cfi_def_cfa_offset 16
	popq	%r15
	.cfi_def_cfa_offset 8
	ret
	.p2align 4,,10
	.p2align 3
.L1820:
	.cfi_restore_state
	movq	32(%r15), %rsi
	movq	%r14, %rdi
	call	memcmp@PLT
	testl	%eax, %eax
	jne	.L1809
	subq	%rbx, %r12
	cmpq	$2147483647, %r12
	jle	.L1821
	jmp	.L1800
	.p2align 4,,10
	.p2align 3
.L1811:
	movq	%r13, %r15
	jmp	.L1800
	.cfi_endproc
.LFE4641:
	.size	_ZNSt8_Rb_treeINSt7__cxx1112basic_stringIcSt11char_traitsIcESaIcEEESt4pairIKS5_PN2ir8FunctionEESt10_Select1stISB_ESt4lessIS5_ESaISB_EE4findERS7_, .-_ZNSt8_Rb_treeINSt7__cxx1112basic_stringIcSt11char_traitsIcESaIcEEESt4pairIKS5_PN2ir8FunctionEESt10_Select1stISB_ESt4lessIS5_ESaISB_EE4findERS7_
	.section	.text._ZNSt8_Rb_treeINSt7__cxx1112basic_stringIcSt11char_traitsIcESaIcEEESt4pairIKS5_N8frontend3STEEESt10_Select1stISA_ESt4lessIS5_ESaISA_EE7_M_copyINSG_20_Reuse_or_alloc_nodeEEEPSt13_Rb_tree_nodeISA_EPKSK_PSt18_Rb_tree_node_baseRT_,"axG",@progbits,_ZNSt8_Rb_treeINSt7__cxx1112basic_stringIcSt11char_traitsIcESaIcEEESt4pairIKS5_N8frontend3STEEESt10_Select1stISA_ESt4lessIS5_ESaISA_EE7_M_copyINSG_20_Reuse_or_alloc_nodeEEEPSt13_Rb_tree_nodeISA_EPKSK_PSt18_Rb_tree_node_baseRT_,comdat
	.align 2
	.p2align 4,,15
	.weak	_ZNSt8_Rb_treeINSt7__cxx1112basic_stringIcSt11char_traitsIcESaIcEEESt4pairIKS5_N8frontend3STEEESt10_Select1stISA_ESt4lessIS5_ESaISA_EE7_M_copyINSG_20_Reuse_or_alloc_nodeEEEPSt13_Rb_tree_nodeISA_EPKSK_PSt18_Rb_tree_node_baseRT_
	.type	_ZNSt8_Rb_treeINSt7__cxx1112basic_stringIcSt11char_traitsIcESaIcEEESt4pairIKS5_N8frontend3STEEESt10_Select1stISA_ESt4lessIS5_ESaISA_EE7_M_copyINSG_20_Reuse_or_alloc_nodeEEEPSt13_Rb_tree_nodeISA_EPKSK_PSt18_Rb_tree_node_baseRT_, @function
_ZNSt8_Rb_treeINSt7__cxx1112basic_stringIcSt11char_traitsIcESaIcEEESt4pairIKS5_N8frontend3STEEESt10_Select1stISA_ESt4lessIS5_ESaISA_EE7_M_copyINSG_20_Reuse_or_alloc_nodeEEEPSt13_Rb_tree_nodeISA_EPKSK_PSt18_Rb_tree_node_baseRT_:
.LFB4725:
	.cfi_startproc
	.cfi_personality 0x9b,DW.ref.__gxx_personality_v0
	.cfi_lsda 0x1b,.LLSDA4725
	pushq	%r15
	.cfi_def_cfa_offset 16
	.cfi_offset 15, -16
	pushq	%r14
	.cfi_def_cfa_offset 24
	.cfi_offset 14, -24
	pushq	%r13
	.cfi_def_cfa_offset 32
	.cfi_offset 13, -32
	pushq	%r12
	.cfi_def_cfa_offset 40
	.cfi_offset 12, -40
	movq	%rcx, %r13
	pushq	%rbp
	.cfi_def_cfa_offset 48
	.cfi_offset 6, -48
	pushq	%rbx
	.cfi_def_cfa_offset 56
	.cfi_offset 3, -56
	movq	%rdx, %rbp
	movq	%rsi, %rbx
	subq	$72, %rsp
	.cfi_def_cfa_offset 128
	movq	8(%rcx), %r12
	movq	%fs:40, %rax
	movq	%rax, 56(%rsp)
	xorl	%eax, %eax
	movq	%rdi, 24(%rsp)
	testq	%r12, %r12
	je	.L1823
	movq	8(%r12), %rax
	testq	%rax, %rax
	movq	%rax, 8(%rcx)
	je	.L1824
	cmpq	24(%rax), %r12
	je	.L1963
	movq	$0, 16(%rax)
.L1829:
	movq	104(%r12), %rdi
	leaq	32(%r12), %r15
	testq	%rdi, %rdi
	je	.L1897
	call	_ZdlPv@PLT
.L1897:
	movq	64(%r12), %rdi
	leaq	80(%r12), %rax
	movq	%rax, 8(%rsp)
	cmpq	%rax, %rdi
	je	.L1830
	call	_ZdlPv@PLT
.L1830:
	movq	32(%r12), %rdi
	leaq	48(%r12), %r14
	cmpq	%r14, %rdi
	je	.L1831
	call	_ZdlPv@PLT
.L1831:
	movq	%r14, 32(%r12)
	movq	32(%rbx), %rsi
	movq	%r15, %rdi
	movq	40(%rbx), %rdx
	addq	%rsi, %rdx
.LEHB191:
	call	_ZNSt7__cxx1112basic_stringIcSt11char_traitsIcESaIcEE12_M_constructIPcEEvT_S7_St20forward_iterator_tag.isra.160
.LEHE191:
	leaq	64(%rbx), %rsi
	leaq	64(%r12), %rdi
.LEHB192:
	call	_ZN2ir7OperandC1ERKS0_@PLT
.LEHE192:
	movq	112(%rbx), %r15
	subq	104(%rbx), %r15
	xorl	%ecx, %ecx
	movq	$0, 104(%r12)
	movq	$0, 112(%r12)
	movq	$0, 120(%r12)
	movq	%r15, %rax
	sarq	$2, %rax
	testq	%rax, %rax
	je	.L1833
	movabsq	$4611686018427387903, %rdx
	cmpq	%rdx, %rax
	ja	.L1964
	movq	%r15, %rdi
.LEHB193:
	call	_Znwm@PLT
.LEHE193:
	movq	%rax, %rcx
.L1833:
	addq	%rcx, %r15
	movq	%rcx, 104(%r12)
	movq	%rcx, 112(%r12)
	movq	%r15, 120(%r12)
	movq	112(%rbx), %rax
	movq	104(%rbx), %rsi
	movq	%rax, %r14
	subq	%rsi, %r14
	cmpq	%rsi, %rax
	je	.L1847
.L1959:
	movq	%rcx, %rdi
	movq	%r14, %rdx
	call	memmove@PLT
	movq	%rax, %rcx
.L1847:
	addq	%r14, %rcx
	movq	%rcx, 112(%r12)
	movl	(%rbx), %eax
	movq	$0, 16(%r12)
	movq	$0, 24(%r12)
	movq	%rbp, 8(%r12)
	movl	%eax, (%r12)
	movq	24(%rbx), %rsi
	testq	%rsi, %rsi
	jne	.L1965
.L1854:
	movq	16(%rbx), %rbp
	testq	%rbp, %rbp
	je	.L1822
	leaq	48(%rsp), %rax
	movq	%r12, %r15
	movq	%rax, 40(%rsp)
.L1894:
	movq	8(%r13), %rbx
	testq	%rbx, %rbx
	je	.L1856
	movq	8(%rbx), %rax
	testq	%rax, %rax
	movq	%rax, 8(%r13)
	je	.L1857
	cmpq	24(%rax), %rbx
	je	.L1966
	movq	$0, 16(%rax)
.L1862:
	movq	104(%rbx), %rdi
	testq	%rdi, %rdi
	je	.L1902
	call	_ZdlPv@PLT
.L1902:
	movq	64(%rbx), %rdi
	leaq	80(%rbx), %rax
	movq	%rax, 32(%rsp)
	cmpq	%rax, %rdi
	je	.L1863
	call	_ZdlPv@PLT
.L1863:
	movq	32(%rbx), %rdi
	leaq	48(%rbx), %rax
	movq	%rax, 8(%rsp)
	cmpq	%rax, %rdi
	je	.L1864
	call	_ZdlPv@PLT
	movq	8(%rsp), %rax
.L1864:
	movq	%rax, 32(%rbx)
	movq	32(%rbp), %rax
	movq	40(%rbp), %r14
	movq	%rax, %rdx
	movq	%rax, 16(%rsp)
	addq	%r14, %rdx
	je	.L1905
	testq	%rax, %rax
	je	.L1967
.L1905:
	cmpq	$15, %r14
	movq	%r14, 48(%rsp)
	ja	.L1968
	cmpq	$1, %r14
	jne	.L1867
	movq	16(%rsp), %rax
	movzbl	(%rax), %eax
	movb	%al, 48(%rbx)
	movq	8(%rsp), %rax
.L1868:
	leaq	64(%rbp), %rsi
	leaq	64(%rbx), %rdi
	movq	%r14, 40(%rbx)
	movb	$0, (%rax,%r14)
.LEHB194:
	call	_ZN2ir7OperandC1ERKS0_@PLT
.LEHE194:
	movq	112(%rbp), %r14
	subq	104(%rbp), %r14
	xorl	%ecx, %ecx
	movq	$0, 104(%rbx)
	movq	$0, 112(%rbx)
	movq	$0, 120(%rbx)
	movq	%r14, %rax
	sarq	$2, %rax
	testq	%rax, %rax
	je	.L1870
	movabsq	$4611686018427387903, %rcx
	cmpq	%rcx, %rax
	ja	.L1969
	movq	%r14, %rdi
.LEHB195:
	call	_Znwm@PLT
.LEHE195:
	movq	%rax, %rcx
.L1870:
	addq	%rcx, %r14
	movq	%rcx, 104(%rbx)
	movq	%rcx, 112(%rbx)
	movq	%r14, 120(%rbx)
.L1962:
	movq	112(%rbp), %rax
	movq	104(%rbp), %rsi
	movq	%rax, %r14
	subq	%rsi, %r14
	cmpq	%rsi, %rax
	je	.L1886
	movq	%rcx, %rdi
	movq	%r14, %rdx
	call	memmove@PLT
	movq	%rax, %rcx
.L1886:
	addq	%r14, %rcx
	movq	%rcx, 112(%rbx)
	movl	0(%rbp), %eax
	movq	$0, 16(%rbx)
	movq	$0, 24(%rbx)
	movl	%eax, (%rbx)
	movq	%rbx, 16(%r15)
	movq	%r15, 8(%rbx)
	movq	24(%rbp), %rsi
	testq	%rsi, %rsi
	jne	.L1970
.L1893:
	movq	16(%rbp), %rbp
	movq	%rbx, %r15
	testq	%rbp, %rbp
	jne	.L1894
.L1822:
	movq	56(%rsp), %rcx
	xorq	%fs:40, %rcx
	movq	%r12, %rax
	jne	.L1971
	addq	$72, %rsp
	.cfi_remember_state
	.cfi_def_cfa_offset 56
	popq	%rbx
	.cfi_def_cfa_offset 48
	popq	%rbp
	.cfi_def_cfa_offset 40
	popq	%r12
	.cfi_def_cfa_offset 32
	popq	%r13
	.cfi_def_cfa_offset 24
	popq	%r14
	.cfi_def_cfa_offset 16
	popq	%r15
	.cfi_def_cfa_offset 8
	ret
	.p2align 4,,10
	.p2align 3
.L1856:
	.cfi_restore_state
	movl	$128, %edi
.LEHB196:
	call	_Znwm@PLT
.LEHE196:
	leaq	48(%rax), %r14
	leaq	32(%rax), %rdi
	movq	%rax, %rbx
	movq	%r14, 32(%rax)
	movq	32(%rbp), %rsi
	movq	40(%rbp), %rdx
	addq	%rsi, %rdx
.LEHB197:
	call	_ZNSt7__cxx1112basic_stringIcSt11char_traitsIcESaIcEE12_M_constructIPcEEvT_S7_St20forward_iterator_tag.isra.160
.LEHE197:
	leaq	64(%rbp), %rsi
	leaq	64(%rbx), %rdi
.LEHB198:
	call	_ZN2ir7OperandC1ERKS0_@PLT
.LEHE198:
	movq	112(%rbp), %rax
	subq	104(%rbp), %rax
	xorl	%ecx, %ecx
	movq	$0, 104(%rbx)
	movq	$0, 112(%rbx)
	movq	$0, 120(%rbx)
	movq	%rax, 8(%rsp)
	sarq	$2, %rax
	testq	%rax, %rax
	je	.L1883
	movabsq	$4611686018427387903, %rcx
	cmpq	%rcx, %rax
	ja	.L1972
	movq	8(%rsp), %rdi
.LEHB199:
	call	_Znwm@PLT
.LEHE199:
	movq	%rax, %rcx
.L1883:
	movq	8(%rsp), %rax
	movq	%rcx, 104(%rbx)
	movq	%rcx, 112(%rbx)
	addq	%rcx, %rax
	movq	%rax, 120(%rbx)
	jmp	.L1962
	.p2align 4,,10
	.p2align 3
.L1970:
	movq	24(%rsp), %rdi
	movq	%r13, %rcx
	movq	%rbx, %rdx
.LEHB200:
	call	_ZNSt8_Rb_treeINSt7__cxx1112basic_stringIcSt11char_traitsIcESaIcEEESt4pairIKS5_N8frontend3STEEESt10_Select1stISA_ESt4lessIS5_ESaISA_EE7_M_copyINSG_20_Reuse_or_alloc_nodeEEEPSt13_Rb_tree_nodeISA_EPKSK_PSt18_Rb_tree_node_baseRT_
.LEHE200:
	movq	%rax, 24(%rbx)
	jmp	.L1893
	.p2align 4,,10
	.p2align 3
.L1857:
	movq	$0, 0(%r13)
	jmp	.L1862
	.p2align 4,,10
	.p2align 3
.L1966:
	movq	$0, 24(%rax)
	movq	16(%rax), %rax
	testq	%rax, %rax
	je	.L1862
	movq	24(%rax), %rdx
	movq	%rax, 8(%r13)
	testq	%rdx, %rdx
	jne	.L1861
	jmp	.L1973
	.p2align 4,,10
	.p2align 3
.L1910:
	movq	%rax, %rdx
.L1861:
	movq	24(%rdx), %rax
	testq	%rax, %rax
	jne	.L1910
	movq	%rdx, 8(%r13)
.L1860:
	movq	16(%rdx), %rax
	testq	%rax, %rax
	je	.L1862
	movq	%rax, 8(%r13)
	jmp	.L1862
	.p2align 4,,10
	.p2align 3
.L1823:
	movl	$128, %edi
.LEHB201:
	call	_Znwm@PLT
.LEHE201:
	movq	32(%rbx), %rsi
	movq	40(%rbx), %rdx
	leaq	48(%rax), %r14
	leaq	32(%rax), %rdi
	movq	%rax, %r12
	movq	%r14, 32(%rax)
	addq	%rsi, %rdx
.LEHB202:
	call	_ZNSt7__cxx1112basic_stringIcSt11char_traitsIcESaIcEE12_M_constructIPcEEvT_S7_St20forward_iterator_tag.isra.160
.LEHE202:
	leaq	64(%rbx), %rsi
	leaq	64(%r12), %rdi
.LEHB203:
	call	_ZN2ir7OperandC1ERKS0_@PLT
.LEHE203:
	movq	112(%rbx), %rax
	movq	104(%rbx), %rsi
	movq	$0, 104(%r12)
	movq	$0, 112(%r12)
	movq	$0, 120(%r12)
	movq	%rax, %r15
	subq	%rsi, %r15
	movq	%r15, %rdx
	sarq	$2, %rdx
	testq	%rdx, %rdx
	je	.L1974
	movabsq	$4611686018427387903, %rax
	cmpq	%rax, %rdx
	ja	.L1975
	movq	%r15, %rdi
.LEHB204:
	call	_Znwm@PLT
.LEHE204:
	movq	%rax, %rcx
	movq	112(%rbx), %rax
	movq	104(%rbx), %rsi
	movq	%rax, %r14
	subq	%rsi, %r14
.L1845:
	addq	%rcx, %r15
	cmpq	%rax, %rsi
	movq	%rcx, 104(%r12)
	movq	%rcx, 112(%r12)
	movq	%r15, 120(%r12)
	jne	.L1959
	jmp	.L1847
	.p2align 4,,10
	.p2align 3
.L1968:
	movq	40(%rsp), %rsi
	leaq	32(%rbx), %rdi
	xorl	%edx, %edx
.LEHB205:
	call	_ZNSt7__cxx1112basic_stringIcSt11char_traitsIcESaIcEE9_M_createERmm@PLT
.LEHE205:
	movq	48(%rsp), %rdx
	movq	%rax, 32(%rbx)
	movq	%rdx, 48(%rbx)
.L1866:
	movq	16(%rsp), %rsi
	movq	%r14, %rdx
	movq	%rax, %rdi
	call	memcpy@PLT
	movq	48(%rsp), %r14
	movq	32(%rbx), %rax
	jmp	.L1868
	.p2align 4,,10
	.p2align 3
.L1965:
	movq	24(%rsp), %rdi
	movq	%r13, %rcx
	movq	%r12, %rdx
.LEHB206:
	call	_ZNSt8_Rb_treeINSt7__cxx1112basic_stringIcSt11char_traitsIcESaIcEEESt4pairIKS5_N8frontend3STEEESt10_Select1stISA_ESt4lessIS5_ESaISA_EE7_M_copyINSG_20_Reuse_or_alloc_nodeEEEPSt13_Rb_tree_nodeISA_EPKSK_PSt18_Rb_tree_node_baseRT_
.LEHE206:
	movq	%rax, 24(%r12)
	jmp	.L1854
	.p2align 4,,10
	.p2align 3
.L1824:
	movq	$0, (%rcx)
	jmp	.L1829
	.p2align 4,,10
	.p2align 3
.L1963:
	movq	$0, 24(%rax)
	movq	16(%rax), %rax
	testq	%rax, %rax
	je	.L1829
	movq	24(%rax), %rdx
	movq	%rax, 8(%rcx)
	testq	%rdx, %rdx
	jne	.L1828
	jmp	.L1976
	.p2align 4,,10
	.p2align 3
.L1908:
	movq	%rax, %rdx
.L1828:
	movq	24(%rdx), %rax
	testq	%rax, %rax
	jne	.L1908
	movq	%rdx, 8(%r13)
.L1827:
	movq	16(%rdx), %rax
	testq	%rax, %rax
	je	.L1829
	movq	%rax, 8(%r13)
	jmp	.L1829
	.p2align 4,,10
	.p2align 3
.L1867:
	testq	%r14, %r14
	movq	8(%rsp), %rax
	je	.L1868
	jmp	.L1866
	.p2align 4,,10
	.p2align 3
.L1974:
	movq	%r15, %r14
	xorl	%ecx, %ecx
	jmp	.L1845
	.p2align 4,,10
	.p2align 3
.L1973:
	movq	%rax, %rdx
	jmp	.L1860
.L1976:
	movq	%rax, %rdx
	jmp	.L1827
.L1972:
.LEHB207:
	call	_ZSt17__throw_bad_allocv@PLT
.LEHE207:
.L1929:
	movq	64(%rbx), %rdi
	movq	%rax, %rbp
	leaq	80(%rbx), %rax
	cmpq	%rax, %rdi
	je	.L1889
	call	_ZdlPv@PLT
.L1889:
	movq	32(%rbx), %rdi
	cmpq	%rdi, %r14
	je	.L1890
	call	_ZdlPv@PLT
.L1890:
	movq	%rbp, %rax
.L1891:
	movq	%rax, %rdi
	call	__cxa_begin_catch@PLT
	movq	%rbx, %rdi
	call	_ZdlPv@PLT
.LEHB208:
	call	__cxa_rethrow@PLT
.LEHE208:
.L1969:
.LEHB209:
	call	_ZSt17__throw_bad_allocv@PLT
.LEHE209:
.L1925:
	movq	64(%rbx), %rdi
	cmpq	%rdi, 32(%rsp)
	movq	%rax, %rbp
	je	.L1877
	call	_ZdlPv@PLT
.L1877:
	movq	32(%rbx), %rdi
	cmpq	%rdi, 8(%rsp)
	je	.L1878
	call	_ZdlPv@PLT
.L1878:
	movq	%rbp, %rax
.L1879:
	movq	%rax, %rdi
	call	__cxa_begin_catch@PLT
	movq	%rbx, %rdi
	call	_ZdlPv@PLT
.LEHB210:
	call	__cxa_rethrow@PLT
.LEHE210:
.L1971:
	call	__stack_chk_fail@PLT
.L1918:
.L1852:
	movq	%rax, %rdi
	call	__cxa_begin_catch@PLT
	movq	%r12, %rdi
	call	_ZdlPv@PLT
.LEHB211:
	call	__cxa_rethrow@PLT
.LEHE211:
.L1926:
	jmp	.L1891
.L1927:
	movq	%rax, %rbx
	call	__cxa_end_catch@PLT
.L1881:
	movq	%rbx, %rdi
	call	__cxa_begin_catch@PLT
	movq	24(%rsp), %rdi
	movq	%r12, %rsi
	call	_ZNSt8_Rb_treeINSt7__cxx1112basic_stringIcSt11char_traitsIcESaIcEEESt4pairIKS5_N8frontend3STEEESt10_Select1stISA_ESt4lessIS5_ESaISA_EE8_M_eraseEPSt13_Rb_tree_nodeISA_E
.LEHB212:
	call	__cxa_rethrow@PLT
.LEHE212:
.L1923:
	movq	%rax, %rbx
	call	__cxa_end_catch@PLT
	jmp	.L1881
.L1913:
	movq	%rax, %rbx
	call	__cxa_end_catch@PLT
	movq	%rbx, %rdi
.LEHB213:
	call	_Unwind_Resume@PLT
.LEHE213:
.L1928:
	movq	%rax, %rbp
	jmp	.L1889
.L1919:
	movq	%rax, %rbx
	call	__cxa_end_catch@PLT
	movq	%rbx, %rdi
.LEHB214:
	call	_Unwind_Resume@PLT
.LEHE214:
.L1921:
	movq	64(%r12), %rdi
	movq	%rax, %rbx
	leaq	80(%r12), %rax
	cmpq	%rax, %rdi
	je	.L1850
	call	_ZdlPv@PLT
.L1850:
	movq	32(%r12), %rdi
	cmpq	%rdi, %r14
	je	.L1851
	call	_ZdlPv@PLT
.L1851:
	movq	%rbx, %rax
	jmp	.L1852
.L1975:
.LEHB215:
	call	_ZSt17__throw_bad_allocv@PLT
.LEHE215:
.L1964:
.LEHB216:
	call	_ZSt17__throw_bad_allocv@PLT
.LEHE216:
.L1917:
	movq	64(%r12), %rdi
	cmpq	%rdi, 8(%rsp)
	movq	%rax, %rbx
	je	.L1840
	call	_ZdlPv@PLT
.L1840:
	movq	32(%r12), %rdi
	cmpq	%rdi, %r14
	je	.L1841
	call	_ZdlPv@PLT
.L1841:
	movq	%rbx, %rax
.L1842:
	movq	%rax, %rdi
	call	__cxa_begin_catch@PLT
	movq	%r12, %rdi
	call	_ZdlPv@PLT
.LEHB217:
	call	__cxa_rethrow@PLT
.LEHE217:
.L1967:
	leaq	.LC4(%rip), %rdi
.LEHB218:
	call	_ZSt19__throw_logic_errorPKc@PLT
.LEHE218:
.L1912:
	movq	%rax, %rbx
	jmp	.L1881
.L1924:
	movq	%rax, %rbp
	jmp	.L1877
.L1920:
	movq	%rax, %rbx
	jmp	.L1850
.L1914:
	jmp	.L1842
.L1916:
	movq	%rax, %rbx
	jmp	.L1840
.L1922:
	jmp	.L1879
.L1915:
	movq	%rax, %rbx
	call	__cxa_end_catch@PLT
	movq	%rbx, %rdi
.LEHB219:
	call	_Unwind_Resume@PLT
.LEHE219:
	.cfi_endproc
.LFE4725:
	.section	.gcc_except_table
	.align 4
.LLSDA4725:
	.byte	0xff
	.byte	0x9b
	.uleb128 .LLSDATT4725-.LLSDATTD4725
.LLSDATTD4725:
	.byte	0x1
	.uleb128 .LLSDACSE4725-.LLSDACSB4725
.LLSDACSB4725:
	.uleb128 .LEHB191-.LFB4725
	.uleb128 .LEHE191-.LEHB191
	.uleb128 .L1914-.LFB4725
	.uleb128 0x1
	.uleb128 .LEHB192-.LFB4725
	.uleb128 .LEHE192-.LEHB192
	.uleb128 .L1916-.LFB4725
	.uleb128 0x3
	.uleb128 .LEHB193-.LFB4725
	.uleb128 .LEHE193-.LEHB193
	.uleb128 .L1917-.LFB4725
	.uleb128 0x3
	.uleb128 .LEHB194-.LFB4725
	.uleb128 .LEHE194-.LEHB194
	.uleb128 .L1924-.LFB4725
	.uleb128 0x3
	.uleb128 .LEHB195-.LFB4725
	.uleb128 .LEHE195-.LEHB195
	.uleb128 .L1925-.LFB4725
	.uleb128 0x3
	.uleb128 .LEHB196-.LFB4725
	.uleb128 .LEHE196-.LEHB196
	.uleb128 .L1912-.LFB4725
	.uleb128 0x1
	.uleb128 .LEHB197-.LFB4725
	.uleb128 .LEHE197-.LEHB197
	.uleb128 .L1926-.LFB4725
	.uleb128 0x1
	.uleb128 .LEHB198-.LFB4725
	.uleb128 .LEHE198-.LEHB198
	.uleb128 .L1928-.LFB4725
	.uleb128 0x3
	.uleb128 .LEHB199-.LFB4725
	.uleb128 .LEHE199-.LEHB199
	.uleb128 .L1929-.LFB4725
	.uleb128 0x3
	.uleb128 .LEHB200-.LFB4725
	.uleb128 .LEHE200-.LEHB200
	.uleb128 .L1912-.LFB4725
	.uleb128 0x1
	.uleb128 .LEHB201-.LFB4725
	.uleb128 .LEHE201-.LEHB201
	.uleb128 0
	.uleb128 0
	.uleb128 .LEHB202-.LFB4725
	.uleb128 .LEHE202-.LEHB202
	.uleb128 .L1918-.LFB4725
	.uleb128 0x1
	.uleb128 .LEHB203-.LFB4725
	.uleb128 .LEHE203-.LEHB203
	.uleb128 .L1920-.LFB4725
	.uleb128 0x3
	.uleb128 .LEHB204-.LFB4725
	.uleb128 .LEHE204-.LEHB204
	.uleb128 .L1921-.LFB4725
	.uleb128 0x3
	.uleb128 .LEHB205-.LFB4725
	.uleb128 .LEHE205-.LEHB205
	.uleb128 .L1922-.LFB4725
	.uleb128 0x1
	.uleb128 .LEHB206-.LFB4725
	.uleb128 .LEHE206-.LEHB206
	.uleb128 .L1912-.LFB4725
	.uleb128 0x1
	.uleb128 .LEHB207-.LFB4725
	.uleb128 .LEHE207-.LEHB207
	.uleb128 .L1929-.LFB4725
	.uleb128 0x3
	.uleb128 .LEHB208-.LFB4725
	.uleb128 .LEHE208-.LEHB208
	.uleb128 .L1927-.LFB4725
	.uleb128 0x3
	.uleb128 .LEHB209-.LFB4725
	.uleb128 .LEHE209-.LEHB209
	.uleb128 .L1925-.LFB4725
	.uleb128 0x3
	.uleb128 .LEHB210-.LFB4725
	.uleb128 .LEHE210-.LEHB210
	.uleb128 .L1923-.LFB4725
	.uleb128 0x3
	.uleb128 .LEHB211-.LFB4725
	.uleb128 .LEHE211-.LEHB211
	.uleb128 .L1919-.LFB4725
	.uleb128 0
	.uleb128 .LEHB212-.LFB4725
	.uleb128 .LEHE212-.LEHB212
	.uleb128 .L1913-.LFB4725
	.uleb128 0
	.uleb128 .LEHB213-.LFB4725
	.uleb128 .LEHE213-.LEHB213
	.uleb128 0
	.uleb128 0
	.uleb128 .LEHB214-.LFB4725
	.uleb128 .LEHE214-.LEHB214
	.uleb128 0
	.uleb128 0
	.uleb128 .LEHB215-.LFB4725
	.uleb128 .LEHE215-.LEHB215
	.uleb128 .L1921-.LFB4725
	.uleb128 0x3
	.uleb128 .LEHB216-.LFB4725
	.uleb128 .LEHE216-.LEHB216
	.uleb128 .L1917-.LFB4725
	.uleb128 0x3
	.uleb128 .LEHB217-.LFB4725
	.uleb128 .LEHE217-.LEHB217
	.uleb128 .L1915-.LFB4725
	.uleb128 0
	.uleb128 .LEHB218-.LFB4725
	.uleb128 .LEHE218-.LEHB218
	.uleb128 .L1922-.LFB4725
	.uleb128 0x1
	.uleb128 .LEHB219-.LFB4725
	.uleb128 .LEHE219-.LEHB219
	.uleb128 0
	.uleb128 0
.LLSDACSE4725:
	.byte	0x1
	.byte	0
	.byte	0
	.byte	0x7d
	.align 4
	.long	0

.LLSDATT4725:
	.section	.text._ZNSt8_Rb_treeINSt7__cxx1112basic_stringIcSt11char_traitsIcESaIcEEESt4pairIKS5_N8frontend3STEEESt10_Select1stISA_ESt4lessIS5_ESaISA_EE7_M_copyINSG_20_Reuse_or_alloc_nodeEEEPSt13_Rb_tree_nodeISA_EPKSK_PSt18_Rb_tree_node_baseRT_,"axG",@progbits,_ZNSt8_Rb_treeINSt7__cxx1112basic_stringIcSt11char_traitsIcESaIcEEESt4pairIKS5_N8frontend3STEEESt10_Select1stISA_ESt4lessIS5_ESaISA_EE7_M_copyINSG_20_Reuse_or_alloc_nodeEEEPSt13_Rb_tree_nodeISA_EPKSK_PSt18_Rb_tree_node_baseRT_,comdat
	.size	_ZNSt8_Rb_treeINSt7__cxx1112basic_stringIcSt11char_traitsIcESaIcEEESt4pairIKS5_N8frontend3STEEESt10_Select1stISA_ESt4lessIS5_ESaISA_EE7_M_copyINSG_20_Reuse_or_alloc_nodeEEEPSt13_Rb_tree_nodeISA_EPKSK_PSt18_Rb_tree_node_baseRT_, .-_ZNSt8_Rb_treeINSt7__cxx1112basic_stringIcSt11char_traitsIcESaIcEEESt4pairIKS5_N8frontend3STEEESt10_Select1stISA_ESt4lessIS5_ESaISA_EE7_M_copyINSG_20_Reuse_or_alloc_nodeEEEPSt13_Rb_tree_nodeISA_EPKSK_PSt18_Rb_tree_node_baseRT_
	.section	.text._ZNSt6vectorIPN2ir11InstructionESaIS2_EE17_M_realloc_insertIJS2_EEEvN9__gnu_cxx17__normal_iteratorIPS2_S4_EEDpOT_,"axG",@progbits,_ZNSt6vectorIPN2ir11InstructionESaIS2_EE17_M_realloc_insertIJS2_EEEvN9__gnu_cxx17__normal_iteratorIPS2_S4_EEDpOT_,comdat
	.align 2
	.p2align 4,,15
	.weak	_ZNSt6vectorIPN2ir11InstructionESaIS2_EE17_M_realloc_insertIJS2_EEEvN9__gnu_cxx17__normal_iteratorIPS2_S4_EEDpOT_
	.type	_ZNSt6vectorIPN2ir11InstructionESaIS2_EE17_M_realloc_insertIJS2_EEEvN9__gnu_cxx17__normal_iteratorIPS2_S4_EEDpOT_, @function
_ZNSt6vectorIPN2ir11InstructionESaIS2_EE17_M_realloc_insertIJS2_EEEvN9__gnu_cxx17__normal_iteratorIPS2_S4_EEDpOT_:
.LFB4853:
	.cfi_startproc
	pushq	%r15
	.cfi_def_cfa_offset 16
	.cfi_offset 15, -16
	pushq	%r14
	.cfi_def_cfa_offset 24
	.cfi_offset 14, -24
	movq	%rsi, %r14
	pushq	%r13
	.cfi_def_cfa_offset 32
	.cfi_offset 13, -32
	pushq	%r12
	.cfi_def_cfa_offset 40
	.cfi_offset 12, -40
	movq	%rsi, %r12
	pushq	%rbp
	.cfi_def_cfa_offset 48
	.cfi_offset 6, -48
	pushq	%rbx
	.cfi_def_cfa_offset 56
	.cfi_offset 3, -56
	movq	%rdi, %rbp
	subq	$24, %rsp
	.cfi_def_cfa_offset 80
	movq	8(%rdi), %rcx
	movq	(%rdi), %rbx
	movq	%rcx, %rax
	subq	%rbx, %r14
	subq	%rbx, %rax
	sarq	$3, %rax
	testq	%rax, %rax
	je	.L1985
	leaq	(%rax,%rax), %rsi
	movq	$-8, %r15
	cmpq	%rsi, %rax
	jbe	.L1996
.L1979:
	movq	%r15, %rdi
	movq	%rdx, (%rsp)
	call	_Znwm@PLT
	movq	0(%rbp), %rbx
	movq	8(%rbp), %rcx
	movq	%r12, %r8
	movq	(%rsp), %rdx
	movq	%rax, %r13
	addq	%rax, %r15
	subq	%rbx, %r8
.L1980:
	addq	%r13, %r14
	je	.L1981
	movq	(%rdx), %rax
	movq	%rax, (%r14)
.L1981:
	cmpq	%rbx, %r12
	je	.L1982
	movq	%r8, %rdx
	movq	%rbx, %rsi
	movq	%r13, %rdi
	movq	%rcx, 8(%rsp)
	movq	%r8, (%rsp)
	call	memmove@PLT
	movq	8(%rsp), %rcx
	movq	(%rsp), %r8
.L1982:
	movq	%rcx, %r14
	leaq	8(%r13,%r8), %r8
	subq	%r12, %r14
	cmpq	%r12, %rcx
	je	.L1983
	movq	%r8, %rdi
	movq	%r14, %rdx
	movq	%r12, %rsi
	call	memcpy@PLT
	movq	%rax, %r8
.L1983:
	addq	%r8, %r14
	testq	%rbx, %rbx
	je	.L1984
	movq	%rbx, %rdi
	call	_ZdlPv@PLT
.L1984:
	movq	%r13, 0(%rbp)
	movq	%r14, 8(%rbp)
	movq	%r15, 16(%rbp)
	addq	$24, %rsp
	.cfi_remember_state
	.cfi_def_cfa_offset 56
	popq	%rbx
	.cfi_def_cfa_offset 48
	popq	%rbp
	.cfi_def_cfa_offset 40
	popq	%r12
	.cfi_def_cfa_offset 32
	popq	%r13
	.cfi_def_cfa_offset 24
	popq	%r14
	.cfi_def_cfa_offset 16
	popq	%r15
	.cfi_def_cfa_offset 8
	ret
	.p2align 4,,10
	.p2align 3
.L1985:
	.cfi_restore_state
	movl	$1, %esi
.L1978:
	leaq	0(,%rsi,8), %r15
	jmp	.L1979
	.p2align 4,,10
	.p2align 3
.L1996:
	movabsq	$2305843009213693951, %rax
	cmpq	%rax, %rsi
	ja	.L1979
	testq	%rsi, %rsi
	jne	.L1978
	movq	%r14, %r8
	xorl	%r15d, %r15d
	xorl	%r13d, %r13d
	jmp	.L1980
	.cfi_endproc
.LFE4853:
	.size	_ZNSt6vectorIPN2ir11InstructionESaIS2_EE17_M_realloc_insertIJS2_EEEvN9__gnu_cxx17__normal_iteratorIPS2_S4_EEDpOT_, .-_ZNSt6vectorIPN2ir11InstructionESaIS2_EE17_M_realloc_insertIJS2_EEEvN9__gnu_cxx17__normal_iteratorIPS2_S4_EEDpOT_
	.section	.text._ZNSt8_Rb_treeINSt7__cxx1112basic_stringIcSt11char_traitsIcESaIcEEESt4pairIKS5_N8frontend3STEEESt10_Select1stISA_ESt4lessIS5_ESaISA_EE24_M_get_insert_unique_posERS7_,"axG",@progbits,_ZNSt8_Rb_treeINSt7__cxx1112basic_stringIcSt11char_traitsIcESaIcEEESt4pairIKS5_N8frontend3STEEESt10_Select1stISA_ESt4lessIS5_ESaISA_EE24_M_get_insert_unique_posERS7_,comdat
	.align 2
	.p2align 4,,15
	.weak	_ZNSt8_Rb_treeINSt7__cxx1112basic_stringIcSt11char_traitsIcESaIcEEESt4pairIKS5_N8frontend3STEEESt10_Select1stISA_ESt4lessIS5_ESaISA_EE24_M_get_insert_unique_posERS7_
	.type	_ZNSt8_Rb_treeINSt7__cxx1112basic_stringIcSt11char_traitsIcESaIcEEESt4pairIKS5_N8frontend3STEEESt10_Select1stISA_ESt4lessIS5_ESaISA_EE24_M_get_insert_unique_posERS7_, @function
_ZNSt8_Rb_treeINSt7__cxx1112basic_stringIcSt11char_traitsIcESaIcEEESt4pairIKS5_N8frontend3STEEESt10_Select1stISA_ESt4lessIS5_ESaISA_EE24_M_get_insert_unique_posERS7_:
.LFB5072:
	.cfi_startproc
	pushq	%r15
	.cfi_def_cfa_offset 16
	.cfi_offset 15, -16
	pushq	%r14
	.cfi_def_cfa_offset 24
	.cfi_offset 14, -24
	pushq	%r13
	.cfi_def_cfa_offset 32
	.cfi_offset 13, -32
	pushq	%r12
	.cfi_def_cfa_offset 40
	.cfi_offset 12, -40
	pushq	%rbp
	.cfi_def_cfa_offset 48
	.cfi_offset 6, -48
	pushq	%rbx
	.cfi_def_cfa_offset 56
	.cfi_offset 3, -56
	subq	$24, %rsp
	.cfi_def_cfa_offset 80
	movq	16(%rdi), %rbx
	movq	%rdi, 8(%rsp)
	movq	%rsi, (%rsp)
	testq	%rbx, %rbx
	je	.L2023
	movq	8(%rsi), %r15
	movq	(%rsi), %rbp
	jmp	.L2000
	.p2align 4,,10
	.p2align 3
.L2005:
	movq	16(%rbx), %rax
	movl	$1, %esi
	testq	%rax, %rax
	je	.L2001
.L2024:
	movq	%rax, %rbx
.L2000:
	movq	40(%rbx), %r14
	movq	32(%rbx), %r13
	cmpq	%r14, %r15
	movq	%r14, %r12
	cmovbe	%r15, %r12
	testq	%r12, %r12
	je	.L2002
	movq	%r12, %rdx
	movq	%r13, %rsi
	movq	%rbp, %rdi
	call	memcmp@PLT
	testl	%eax, %eax
	jne	.L2003
.L2002:
	movq	%r15, %rax
	subq	%r14, %rax
	cmpq	$2147483647, %rax
	jg	.L2004
	cmpq	$-2147483648, %rax
	jl	.L2005
.L2003:
	testl	%eax, %eax
	js	.L2005
.L2004:
	movq	24(%rbx), %rax
	xorl	%esi, %esi
	testq	%rax, %rax
	jne	.L2024
.L2001:
	testb	%sil, %sil
	movq	%rbx, %r9
	jne	.L1999
	testq	%r12, %r12
	jne	.L2025
.L2010:
	subq	%r15, %r14
	cmpq	$2147483647, %r14
	jg	.L2012
.L2027:
	cmpq	$-2147483648, %r14
	jl	.L2013
	movl	%r14d, %eax
.L2011:
	testl	%eax, %eax
	jns	.L2012
.L2013:
	addq	$24, %rsp
	.cfi_remember_state
	.cfi_def_cfa_offset 56
	xorl	%eax, %eax
	movq	%r9, %rdx
	popq	%rbx
	.cfi_def_cfa_offset 48
	popq	%rbp
	.cfi_def_cfa_offset 40
	popq	%r12
	.cfi_def_cfa_offset 32
	popq	%r13
	.cfi_def_cfa_offset 24
	popq	%r14
	.cfi_def_cfa_offset 16
	popq	%r15
	.cfi_def_cfa_offset 8
	ret
	.p2align 4,,10
	.p2align 3
.L2012:
	.cfi_restore_state
	addq	$24, %rsp
	.cfi_remember_state
	.cfi_def_cfa_offset 56
	movq	%rbx, %rax
	xorl	%edx, %edx
	popq	%rbx
	.cfi_def_cfa_offset 48
	popq	%rbp
	.cfi_def_cfa_offset 40
	popq	%r12
	.cfi_def_cfa_offset 32
	popq	%r13
	.cfi_def_cfa_offset 24
	popq	%r14
	.cfi_def_cfa_offset 16
	popq	%r15
	.cfi_def_cfa_offset 8
	ret
	.p2align 4,,10
	.p2align 3
.L2023:
	.cfi_restore_state
	leaq	8(%rdi), %rbx
.L1999:
	movq	8(%rsp), %rax
	cmpq	%rbx, 24(%rax)
	je	.L2026
	movq	%rbx, %rdi
	call	_ZSt18_Rb_tree_decrementPSt18_Rb_tree_node_base@PLT
	movq	(%rsp), %rcx
	movq	40(%rax), %r14
	movq	%rbx, %r9
	movq	32(%rax), %r13
	movq	%rax, %rbx
	movq	8(%rcx), %r15
	movq	%r14, %r12
	movq	(%rcx), %rbp
	cmpq	%r14, %r15
	cmovbe	%r15, %r12
	testq	%r12, %r12
	je	.L2010
.L2025:
	movq	%r12, %rdx
	movq	%rbp, %rsi
	movq	%r13, %rdi
	movq	%r9, (%rsp)
	call	memcmp@PLT
	testl	%eax, %eax
	movq	(%rsp), %r9
	jne	.L2011
	subq	%r15, %r14
	cmpq	$2147483647, %r14
	jle	.L2027
	jmp	.L2012
	.p2align 4,,10
	.p2align 3
.L2026:
	addq	$24, %rsp
	.cfi_def_cfa_offset 56
	movq	%rbx, %rdx
	xorl	%eax, %eax
	popq	%rbx
	.cfi_def_cfa_offset 48
	popq	%rbp
	.cfi_def_cfa_offset 40
	popq	%r12
	.cfi_def_cfa_offset 32
	popq	%r13
	.cfi_def_cfa_offset 24
	popq	%r14
	.cfi_def_cfa_offset 16
	popq	%r15
	.cfi_def_cfa_offset 8
	ret
	.cfi_endproc
.LFE5072:
	.size	_ZNSt8_Rb_treeINSt7__cxx1112basic_stringIcSt11char_traitsIcESaIcEEESt4pairIKS5_N8frontend3STEEESt10_Select1stISA_ESt4lessIS5_ESaISA_EE24_M_get_insert_unique_posERS7_, .-_ZNSt8_Rb_treeINSt7__cxx1112basic_stringIcSt11char_traitsIcESaIcEEESt4pairIKS5_N8frontend3STEEESt10_Select1stISA_ESt4lessIS5_ESaISA_EE24_M_get_insert_unique_posERS7_
	.text
	.align 2
	.p2align 4,,15
	.type	_ZNSt8_Rb_treeINSt7__cxx1112basic_stringIcSt11char_traitsIcESaIcEEESt4pairIKS5_N8frontend3STEEESt10_Select1stISA_ESt4lessIS5_ESaISA_EE22_M_emplace_hint_uniqueIJRKSt21piecewise_construct_tSt5tupleIJRS7_EESL_IJEEEEESt17_Rb_tree_iteratorISA_ESt23_Rb_tree_const_iteratorISA_EDpOT_.isra.270, @function
_ZNSt8_Rb_treeINSt7__cxx1112basic_stringIcSt11char_traitsIcESaIcEEESt4pairIKS5_N8frontend3STEEESt10_Select1stISA_ESt4lessIS5_ESaISA_EE22_M_emplace_hint_uniqueIJRKSt21piecewise_construct_tSt5tupleIJRS7_EESL_IJEEEEESt17_Rb_tree_iteratorISA_ESt23_Rb_tree_const_iteratorISA_EDpOT_.isra.270:
.LFB5791:
	.cfi_startproc
	.cfi_personality 0x9b,DW.ref.__gxx_personality_v0
	.cfi_lsda 0x1b,.LLSDA5791
	pushq	%r15
	.cfi_def_cfa_offset 16
	.cfi_offset 15, -16
	pushq	%r14
	.cfi_def_cfa_offset 24
	.cfi_offset 14, -24
	pushq	%r13
	.cfi_def_cfa_offset 32
	.cfi_offset 13, -32
	pushq	%r12
	.cfi_def_cfa_offset 40
	.cfi_offset 12, -40
	movq	%rdi, %r13
	pushq	%rbp
	.cfi_def_cfa_offset 48
	.cfi_offset 6, -48
	pushq	%rbx
	.cfi_def_cfa_offset 56
	.cfi_offset 3, -56
	movq	%rdx, %r12
	movl	$128, %edi
	movq	%rsi, %rbp
	subq	$120, %rsp
	.cfi_def_cfa_offset 176
	movq	%fs:40, %rax
	movq	%rax, 104(%rsp)
	xorl	%eax, %eax
.LEHB220:
	call	_Znwm@PLT
.LEHE220:
	movq	%rax, %rbx
	movq	(%r12), %rax
	leaq	48(%rbx), %r15
	movq	%r15, 32(%rbx)
	movq	(%rax), %r14
	movq	8(%rax), %r12
	movq	%r14, %rax
	addq	%r12, %rax
	je	.L2029
	testq	%r14, %r14
	je	.L2114
.L2029:
	leaq	32(%rbx), %rax
	cmpq	$15, %r12
	movq	%r12, 56(%rsp)
	movq	%rax, 8(%rsp)
	ja	.L2115
	cmpq	$1, %r12
	jne	.L2032
	movzbl	(%r14), %eax
	movb	%al, 48(%rbx)
	movq	%r15, %rax
.L2033:
	pxor	%xmm0, %xmm0
	movq	%r12, 40(%rbx)
	movb	$0, (%rax,%r12)
	leaq	64(%rsp), %r12
	leaq	64(%rbx), %rdi
	movl	$6, %edx
	movl	$1819047278, 80(%rsp)
	movq	$4, 72(%rsp)
	movups	%xmm0, 64(%rbx)
	leaq	16(%r12), %rax
	movq	%r12, %rsi
	movb	$0, 84(%rsp)
	movups	%xmm0, 80(%rbx)
	movups	%xmm0, 96(%rbx)
	movups	%xmm0, 112(%rbx)
	movq	%rax, 64(%rsp)
.LEHB221:
	call	_ZN2ir7OperandC1ENSt7__cxx1112basic_stringIcSt11char_traitsIcESaIcEEENS_4TypeE@PLT
.LEHE221:
	movq	64(%rsp), %rdi
	addq	$16, %r12
	cmpq	%r12, %rdi
	je	.L2034
	call	_ZdlPv@PLT
.L2034:
	leaq	8(%r13), %r14
	movq	$0, 104(%rbx)
	movq	$0, 112(%rbx)
	movq	$0, 120(%rbx)
	movq	%rbp, %r12
	cmpq	%rbp, %r14
	je	.L2116
	movq	40(%rbx), %rcx
	movq	40(%rbp), %r8
	movq	32(%rbx), %rdi
	movq	32(%rbp), %r10
	cmpq	%r8, %rcx
	movq	%r8, %r9
	cmovbe	%rcx, %r9
	movq	%rdi, 8(%rsp)
	testq	%r9, %r9
	je	.L2047
	movq	%r9, %rdx
	movq	%r10, %rsi
	movq	%r8, 40(%rsp)
	movq	%rcx, 32(%rsp)
	movq	%r9, 24(%rsp)
	movq	%r10, 16(%rsp)
	call	memcmp@PLT
	testl	%eax, %eax
	movq	16(%rsp), %r10
	movq	24(%rsp), %r9
	movq	32(%rsp), %rcx
	movq	40(%rsp), %r8
	jne	.L2117
	movq	%rcx, %rax
	subq	%r8, %rax
	cmpq	$2147483647, %rax
	jg	.L2073
.L2074:
	cmpq	$-2147483648, %rax
	jl	.L2050
	testl	%eax, %eax
	jns	.L2051
.L2050:
	cmpq	%rbp, 24(%r13)
	movq	%rcx, 16(%rsp)
	je	.L2080
	movq	%rbp, %rdi
	call	_ZSt18_Rb_tree_decrementPSt18_Rb_tree_node_base@PLT
	movq	16(%rsp), %rcx
	movq	40(%rax), %r9
	movq	%rax, %r8
	cmpq	%r9, %rcx
	movq	%r9, %rdx
	cmovbe	%rcx, %rdx
	testq	%rdx, %rdx
	je	.L2052
	movq	32(%rax), %rdi
	movq	8(%rsp), %rsi
	movq	%r9, 32(%rsp)
	movq	%rcx, 24(%rsp)
	movq	%rax, 16(%rsp)
	call	memcmp@PLT
	testl	%eax, %eax
	movq	16(%rsp), %r8
	movq	24(%rsp), %rcx
	movq	32(%rsp), %r9
	jne	.L2053
.L2052:
	subq	%rcx, %r9
	cmpq	$2147483647, %r9
	jg	.L2063
	cmpq	$-2147483648, %r9
	jl	.L2055
	movl	%r9d, %eax
.L2053:
	testl	%eax, %eax
	jns	.L2063
.L2055:
	cmpq	$0, 24(%r8)
	je	.L2077
.L2080:
	movq	%rbp, %r8
	jmp	.L2065
	.p2align 4,,10
	.p2align 3
.L2047:
	movq	%rcx, %rax
	subq	%r8, %rax
	cmpq	$2147483647, %rax
	jle	.L2074
.L2056:
	subq	%rcx, %r8
	cmpq	$2147483647, %r8
	jg	.L2058
.L2118:
	cmpq	$-2147483648, %r8
	jl	.L2059
	movl	%r8d, %eax
.L2057:
	testl	%eax, %eax
	jns	.L2058
.L2059:
	cmpq	%rbp, 32(%r13)
	je	.L2082
	movq	%rbp, %rdi
	movq	%rcx, 16(%rsp)
	call	_ZSt18_Rb_tree_incrementPSt18_Rb_tree_node_base@PLT
	movq	16(%rsp), %rcx
	movq	40(%rax), %r12
	movq	%rax, %r8
	cmpq	%r12, %rcx
	movq	%r12, %rdx
	cmovbe	%rcx, %rdx
	testq	%rdx, %rdx
	je	.L2061
	movq	32(%rax), %rsi
	movq	8(%rsp), %rdi
	movq	%rcx, 24(%rsp)
	movq	%rax, 16(%rsp)
	call	memcmp@PLT
	testl	%eax, %eax
	movq	16(%rsp), %r8
	movq	24(%rsp), %rcx
	jne	.L2062
.L2061:
	movq	%rcx, %rax
	subq	%r12, %rax
	cmpq	$2147483647, %rax
	jg	.L2063
	cmpq	$-2147483648, %rax
	jl	.L2064
.L2062:
	testl	%eax, %eax
	jns	.L2063
.L2064:
	cmpq	$0, 24(%rbp)
	movq	%r8, %r12
	jne	.L2065
.L2082:
	movq	%rbp, %r8
.L2060:
	movq	40(%r8), %rbp
	movq	%rcx, %rdx
	cmpq	%rcx, %rbp
	cmovbe	%rbp, %rdx
	testq	%rdx, %rdx
	je	.L2068
	movq	32(%r8), %rsi
	movq	8(%rsp), %rdi
	movq	%rcx, 24(%rsp)
	movq	%r8, 16(%rsp)
	call	memcmp@PLT
	testl	%eax, %eax
	movl	%eax, %edi
	movq	16(%rsp), %r8
	movq	24(%rsp), %rcx
	jne	.L2069
.L2068:
	subq	%rbp, %rcx
	xorl	%edi, %edi
	cmpq	$2147483647, %rcx
	jg	.L2067
	cmpq	$-2147483648, %rcx
	jl	.L2085
	movl	%ecx, %edi
.L2069:
	shrl	$31, %edi
	jmp	.L2067
	.p2align 4,,10
	.p2align 3
.L2051:
	testq	%r9, %r9
	je	.L2056
.L2073:
	movq	8(%rsp), %rsi
	movq	%r9, %rdx
	movq	%r10, %rdi
	movq	%r8, 24(%rsp)
	movq	%rcx, 16(%rsp)
	call	memcmp@PLT
	testl	%eax, %eax
	movq	16(%rsp), %rcx
	movq	24(%rsp), %r8
	jne	.L2057
	subq	%rcx, %r8
	cmpq	$2147483647, %r8
	jle	.L2118
	.p2align 4,,10
	.p2align 3
.L2058:
	movq	64(%rbx), %rdi
	leaq	80(%rbx), %rax
	cmpq	%rax, %rdi
	je	.L2071
.L2123:
	call	_ZdlPv@PLT
.L2071:
	movq	32(%rbx), %rdi
	cmpq	%rdi, %r15
	je	.L2072
	call	_ZdlPv@PLT
.L2072:
	movq	%rbx, %rdi
	call	_ZdlPv@PLT
	movq	%r12, %rax
.L2070:
	movq	104(%rsp), %rsi
	xorq	%fs:40, %rsi
	jne	.L2119
	addq	$120, %rsp
	.cfi_remember_state
	.cfi_def_cfa_offset 56
	popq	%rbx
	.cfi_def_cfa_offset 48
	popq	%rbp
	.cfi_def_cfa_offset 40
	popq	%r12
	.cfi_def_cfa_offset 32
	popq	%r13
	.cfi_def_cfa_offset 24
	popq	%r14
	.cfi_def_cfa_offset 16
	popq	%r15
	.cfi_def_cfa_offset 8
	ret
	.p2align 4,,10
	.p2align 3
.L2116:
	.cfi_restore_state
	cmpq	$0, 40(%r13)
	je	.L2063
	movq	32(%r13), %r8
	movq	40(%rbx), %r12
	movq	40(%r8), %rbp
	movq	%r12, %rdx
	cmpq	%r12, %rbp
	cmovbe	%rbp, %rdx
	testq	%rdx, %rdx
	jne	.L2120
.L2043:
	subq	%r12, %rbp
	cmpq	$2147483647, %rbp
	jg	.L2063
	cmpq	$-2147483648, %rbp
	jl	.L2077
	movl	%ebp, %eax
.L2044:
	xorl	%r12d, %r12d
	testl	%eax, %eax
	js	.L2065
.L2063:
	leaq	32(%rbx), %rsi
	movq	%r13, %rdi
	call	_ZNSt8_Rb_treeINSt7__cxx1112basic_stringIcSt11char_traitsIcESaIcEEESt4pairIKS5_N8frontend3STEEESt10_Select1stISA_ESt4lessIS5_ESaISA_EE24_M_get_insert_unique_posERS7_
	testq	%rdx, %rdx
	movq	%rax, %r12
	movq	%rdx, %r8
	je	.L2121
.L2065:
	testq	%r12, %r12
	jne	.L2085
	cmpq	%r8, %r14
	jne	.L2122
.L2085:
	movl	$1, %edi
.L2067:
	movq	%r14, %rcx
	movq	%r8, %rdx
	movq	%rbx, %rsi
	call	_ZSt29_Rb_tree_insert_and_rebalancebPSt18_Rb_tree_node_baseS0_RS_@PLT
	addq	$1, 40(%r13)
	movq	%rbx, %rax
	jmp	.L2070
	.p2align 4,,10
	.p2align 3
.L2115:
	leaq	56(%rsp), %rsi
	xorl	%edx, %edx
	movq	%rax, %rdi
.LEHB222:
	call	_ZNSt7__cxx1112basic_stringIcSt11char_traitsIcESaIcEE9_M_createERmm@PLT
	movq	56(%rsp), %rdx
	movq	%rax, 32(%rbx)
	movq	%rdx, 48(%rbx)
.L2031:
	movq	%r12, %rdx
	movq	%r14, %rsi
	movq	%rax, %rdi
	call	memcpy@PLT
	movq	56(%rsp), %r12
	movq	32(%rbx), %rax
	jmp	.L2033
	.p2align 4,,10
	.p2align 3
.L2117:
	js	.L2050
	jmp	.L2073
	.p2align 4,,10
	.p2align 3
.L2120:
	movq	32(%r8), %rdi
	movq	32(%rbx), %rsi
	movq	%r8, 8(%rsp)
	call	memcmp@PLT
	testl	%eax, %eax
	movq	8(%rsp), %r8
	je	.L2043
	jmp	.L2044
	.p2align 4,,10
	.p2align 3
.L2032:
	testq	%r12, %r12
	movq	%r15, %rax
	je	.L2033
	jmp	.L2031
	.p2align 4,,10
	.p2align 3
.L2122:
	movq	32(%rbx), %rax
	movq	40(%rbx), %rcx
	movq	%rax, 8(%rsp)
	jmp	.L2060
	.p2align 4,,10
	.p2align 3
.L2121:
	movq	104(%rbx), %rdi
	testq	%rdi, %rdi
	je	.L2058
	call	_ZdlPv@PLT
	movq	64(%rbx), %rdi
	leaq	80(%rbx), %rax
	cmpq	%rax, %rdi
	jne	.L2123
	jmp	.L2071
	.p2align 4,,10
	.p2align 3
.L2077:
	xorl	%r12d, %r12d
	jmp	.L2065
.L2114:
	leaq	.LC4(%rip), %rdi
	call	_ZSt19__throw_logic_errorPKc@PLT
.LEHE222:
.L2086:
.L2040:
	movq	%rax, %rdi
	call	__cxa_begin_catch@PLT
	movq	%rbx, %rdi
	call	_ZdlPv@PLT
.LEHB223:
	call	__cxa_rethrow@PLT
.LEHE223:
.L2119:
	call	__stack_chk_fail@PLT
.L2088:
	movq	64(%rsp), %rdi
	addq	$16, %r12
	movq	%rax, %rbp
	cmpq	%r12, %rdi
	je	.L2038
	call	_ZdlPv@PLT
.L2038:
	movq	32(%rbx), %rdi
	cmpq	%rdi, %r15
	je	.L2039
	call	_ZdlPv@PLT
.L2039:
	movq	%rbp, %rax
	jmp	.L2040
.L2087:
	movq	%rax, %rbx
	call	__cxa_end_catch@PLT
	movq	%rbx, %rdi
.LEHB224:
	call	_Unwind_Resume@PLT
.LEHE224:
	.cfi_endproc
.LFE5791:
	.section	.gcc_except_table
	.align 4
.LLSDA5791:
	.byte	0xff
	.byte	0x9b
	.uleb128 .LLSDATT5791-.LLSDATTD5791
.LLSDATTD5791:
	.byte	0x1
	.uleb128 .LLSDACSE5791-.LLSDACSB5791
.LLSDACSB5791:
	.uleb128 .LEHB220-.LFB5791
	.uleb128 .LEHE220-.LEHB220
	.uleb128 0
	.uleb128 0
	.uleb128 .LEHB221-.LFB5791
	.uleb128 .LEHE221-.LEHB221
	.uleb128 .L2088-.LFB5791
	.uleb128 0x3
	.uleb128 .LEHB222-.LFB5791
	.uleb128 .LEHE222-.LEHB222
	.uleb128 .L2086-.LFB5791
	.uleb128 0x1
	.uleb128 .LEHB223-.LFB5791
	.uleb128 .LEHE223-.LEHB223
	.uleb128 .L2087-.LFB5791
	.uleb128 0
	.uleb128 .LEHB224-.LFB5791
	.uleb128 .LEHE224-.LEHB224
	.uleb128 0
	.uleb128 0
.LLSDACSE5791:
	.byte	0x1
	.byte	0
	.byte	0
	.byte	0x7d
	.align 4
	.long	0

.LLSDATT5791:
	.text
	.size	_ZNSt8_Rb_treeINSt7__cxx1112basic_stringIcSt11char_traitsIcESaIcEEESt4pairIKS5_N8frontend3STEEESt10_Select1stISA_ESt4lessIS5_ESaISA_EE22_M_emplace_hint_uniqueIJRKSt21piecewise_construct_tSt5tupleIJRS7_EESL_IJEEEEESt17_Rb_tree_iteratorISA_ESt23_Rb_tree_const_iteratorISA_EDpOT_.isra.270, .-_ZNSt8_Rb_treeINSt7__cxx1112basic_stringIcSt11char_traitsIcESaIcEEESt4pairIKS5_N8frontend3STEEESt10_Select1stISA_ESt4lessIS5_ESaISA_EE22_M_emplace_hint_uniqueIJRKSt21piecewise_construct_tSt5tupleIJRS7_EESL_IJEEEEESt17_Rb_tree_iteratorISA_ESt23_Rb_tree_const_iteratorISA_EDpOT_.isra.270
	.align 2
	.p2align 4,,15
	.globl	_ZN8frontend11SymbolTable15add_scope_entryENS_3STEEb
	.type	_ZN8frontend11SymbolTable15add_scope_entryENS_3STEEb, @function
_ZN8frontend11SymbolTable15add_scope_entryENS_3STEEb:
.LFB3576:
	.cfi_startproc
	.cfi_personality 0x9b,DW.ref.__gxx_personality_v0
	.cfi_lsda 0x1b,.LLSDA3576
	pushq	%r15
	.cfi_def_cfa_offset 16
	.cfi_offset 15, -16
	pushq	%r14
	.cfi_def_cfa_offset 24
	.cfi_offset 14, -24
	pushq	%r13
	.cfi_def_cfa_offset 32
	.cfi_offset 13, -32
	pushq	%r12
	.cfi_def_cfa_offset 40
	.cfi_offset 12, -40
	movq	%rdi, %r13
	pushq	%rbp
	.cfi_def_cfa_offset 48
	.cfi_offset 6, -48
	pushq	%rbx
	.cfi_def_cfa_offset 56
	.cfi_offset 3, -56
	movq	%rsi, %rbx
	subq	$136, %rsp
	.cfi_def_cfa_offset 192
	movq	(%rsi), %rsi
	movq	%fs:40, %rax
	movq	%rax, 120(%rsp)
	xorl	%eax, %eax
	movq	8(%rbx), %rax
	addq	%rsi, %rax
	testb	%dl, %dl
	je	.L2125
	leaq	48(%rsp), %r12
	leaq	16(%r12), %rdx
	movq	%r12, %rdi
	movq	%rdx, 48(%rsp)
	movq	%rax, %rdx
.LEHB225:
	call	_ZNSt7__cxx1112basic_stringIcSt11char_traitsIcESaIcEE12_M_constructIPcEEvT_S7_St20forward_iterator_tag.isra.160
.LEHE225:
	movq	0(%r13), %rax
	movq	56(%rax), %r15
	leaq	48(%rax), %r13
	movq	%rax, 16(%rsp)
	movq	%r13, 8(%rsp)
	testq	%r15, %r15
	je	.L2126
	movq	48(%rsp), %rax
	movq	56(%rsp), %r14
	movq	%rax, (%rsp)
	jmp	.L2127
	.p2align 4,,10
	.p2align 3
.L2132:
	movq	24(%r15), %r15
	testq	%r15, %r15
	je	.L2128
.L2127:
	movq	40(%r15), %rbp
	movq	%r14, %rdx
	cmpq	%r14, %rbp
	cmovbe	%rbp, %rdx
	testq	%rdx, %rdx
	je	.L2129
	movq	32(%r15), %rdi
	movq	(%rsp), %rsi
	call	memcmp@PLT
	testl	%eax, %eax
	jne	.L2130
.L2129:
	movq	%rbp, %rcx
	subq	%r14, %rcx
	cmpq	$2147483647, %rcx
	jg	.L2131
	cmpq	$-2147483648, %rcx
	jl	.L2132
	movl	%ecx, %eax
.L2130:
	testl	%eax, %eax
	js	.L2132
.L2131:
	movq	%r15, %r13
	movq	16(%r15), %r15
	testq	%r15, %r15
	jne	.L2127
.L2128:
	cmpq	%r13, 8(%rsp)
	je	.L2126
	movq	40(%r13), %r15
	cmpq	%r15, %r14
	movq	%r15, %rdx
	cmovbe	%r14, %rdx
	testq	%rdx, %rdx
	je	.L2134
	movq	32(%r13), %rsi
	movq	(%rsp), %rdi
	call	memcmp@PLT
	testl	%eax, %eax
	jne	.L2135
.L2134:
	movq	%r14, %r9
	subq	%r15, %r9
	cmpq	$2147483647, %r9
	jg	.L2136
	cmpq	$-2147483648, %r9
	jl	.L2126
	movl	%r9d, %eax
.L2135:
	testl	%eax, %eax
	jns	.L2136
.L2126:
	movq	16(%rsp), %rdi
	leaq	40(%rsp), %rdx
	movq	%r13, %rsi
	movq	%r12, 40(%rsp)
	addq	$40, %rdi
.LEHB226:
	call	_ZNSt8_Rb_treeINSt7__cxx1112basic_stringIcSt11char_traitsIcESaIcEEESt4pairIKS5_N8frontend3STEEESt10_Select1stISA_ESt4lessIS5_ESaISA_EE22_M_emplace_hint_uniqueIJRKSt21piecewise_construct_tSt5tupleIJRS7_EESL_IJEEEEESt17_Rb_tree_iteratorISA_ESt23_Rb_tree_const_iteratorISA_EDpOT_.isra.270
	movq	%rax, %r13
.L2136:
	leaq	80(%rsp), %rbp
	leaq	64(%r13), %rsi
	movq	%rbx, %rdx
	movq	%rbp, %rdi
	call	_ZN2ir7OperandaSERKS0_@PLT
	movq	80(%rsp), %rdi
	addq	$16, %rbp
	cmpq	%rbp, %rdi
	je	.L2137
	call	_ZdlPv@PLT
.L2137:
	leaq	40(%rbx), %rsi
	leaq	104(%r13), %rdi
	call	_ZNSt6vectorIiSaIiEEaSERKS1_
.LEHE226:
.L2181:
	movq	48(%rsp), %rdi
	addq	$16, %r12
	cmpq	%r12, %rdi
	je	.L2124
	call	_ZdlPv@PLT
.L2124:
	movq	120(%rsp), %rax
	xorq	%fs:40, %rax
	jne	.L2185
	addq	$136, %rsp
	.cfi_remember_state
	.cfi_def_cfa_offset 56
	popq	%rbx
	.cfi_def_cfa_offset 48
	popq	%rbp
	.cfi_def_cfa_offset 40
	popq	%r12
	.cfi_def_cfa_offset 32
	popq	%r13
	.cfi_def_cfa_offset 24
	popq	%r14
	.cfi_def_cfa_offset 16
	popq	%r15
	.cfi_def_cfa_offset 8
	ret
	.p2align 4,,10
	.p2align 3
.L2125:
	.cfi_restore_state
	leaq	80(%rsp), %rbp
	leaq	48(%rsp), %r12
	leaq	16(%rbp), %rdx
	movq	%rbp, %rdi
	movq	%rdx, 80(%rsp)
	movq	%rax, %rdx
.LEHB227:
	call	_ZNSt7__cxx1112basic_stringIcSt11char_traitsIcESaIcEE12_M_constructIPcEEvT_S7_St20forward_iterator_tag.isra.160
.LEHE227:
	movq	%rbp, %rdx
	movq	%r13, %rsi
	movq	%r12, %rdi
.LEHB228:
	call	_ZNK8frontend11SymbolTable15get_scoped_nameENSt7__cxx1112basic_stringIcSt11char_traitsIcESaIcEEE
.LEHE228:
	movq	80(%rsp), %rdi
	leaq	16(%rbp), %rax
	cmpq	%rax, %rdi
	je	.L2140
	call	_ZdlPv@PLT
.L2140:
	movq	8(%r13), %rax
	subq	0(%r13), %rax
	movq	%rbx, %rsi
	movq	%r12, %rdi
	sarq	$3, %rax
	imull	$-1171354717, %eax, %eax
	leal	-1(%rax), %r14d
	call	_ZNSt7__cxx1112basic_stringIcSt11char_traitsIcESaIcEE4swapERS4_@PLT
	movslq	%r14d, %rax
	leaq	(%rax,%rax,4), %rdx
	leaq	(%rax,%rdx,2), %rdx
	movq	0(%r13), %rax
	leaq	(%rax,%rdx,8), %rax
	movq	56(%rax), %r14
	leaq	48(%rax), %r13
	movq	%rax, 24(%rsp)
	movq	%r13, 16(%rsp)
	testq	%r14, %r14
	je	.L2141
	movq	48(%rsp), %rax
	movq	56(%rsp), %r15
	movq	%rax, 8(%rsp)
	jmp	.L2142
	.p2align 4,,10
	.p2align 3
.L2147:
	movq	24(%r14), %r14
	testq	%r14, %r14
	je	.L2143
.L2142:
	movq	40(%r14), %rcx
	movq	%r15, %rdx
	cmpq	%r15, %rcx
	cmovbe	%rcx, %rdx
	testq	%rdx, %rdx
	je	.L2144
	movq	32(%r14), %rdi
	movq	8(%rsp), %rsi
	movq	%rcx, (%rsp)
	call	memcmp@PLT
	testl	%eax, %eax
	movq	(%rsp), %rcx
	jne	.L2145
.L2144:
	subq	%r15, %rcx
	cmpq	$2147483647, %rcx
	jg	.L2146
	cmpq	$-2147483648, %rcx
	jl	.L2147
	movl	%ecx, %eax
.L2145:
	testl	%eax, %eax
	js	.L2147
.L2146:
	movq	%r14, %r13
	movq	16(%r14), %r14
	testq	%r14, %r14
	jne	.L2142
.L2143:
	cmpq	%r13, 16(%rsp)
	je	.L2141
	movq	40(%r13), %rcx
	cmpq	%rcx, %r15
	movq	%rcx, %rdx
	cmovbe	%r15, %rdx
	testq	%rdx, %rdx
	je	.L2149
	movq	32(%r13), %rsi
	movq	8(%rsp), %rdi
	movq	%rcx, (%rsp)
	call	memcmp@PLT
	testl	%eax, %eax
	movq	(%rsp), %rcx
	jne	.L2150
.L2149:
	movq	%r15, %r9
	subq	%rcx, %r9
	cmpq	$2147483647, %r9
	jg	.L2151
	cmpq	$-2147483648, %r9
	jl	.L2141
	movl	%r9d, %eax
.L2150:
	testl	%eax, %eax
	jns	.L2151
.L2141:
	movq	24(%rsp), %rdi
	leaq	40(%rsp), %rdx
	movq	%r13, %rsi
	movq	%r12, 40(%rsp)
	addq	$40, %rdi
.LEHB229:
	call	_ZNSt8_Rb_treeINSt7__cxx1112basic_stringIcSt11char_traitsIcESaIcEEESt4pairIKS5_N8frontend3STEEESt10_Select1stISA_ESt4lessIS5_ESaISA_EE22_M_emplace_hint_uniqueIJRKSt21piecewise_construct_tSt5tupleIJRS7_EESL_IJEEEEESt17_Rb_tree_iteratorISA_ESt23_Rb_tree_const_iteratorISA_EDpOT_.isra.270
	movq	%rax, %r13
.L2151:
	leaq	64(%r13), %rsi
	movq	%rbx, %rdx
	movq	%rbp, %rdi
	call	_ZN2ir7OperandaSERKS0_@PLT
	movq	80(%rsp), %rdi
	addq	$16, %rbp
	cmpq	%rbp, %rdi
	je	.L2152
	call	_ZdlPv@PLT
.L2152:
	leaq	40(%rbx), %rsi
	leaq	104(%r13), %rdi
	call	_ZNSt6vectorIiSaIiEEaSERKS1_
.LEHE229:
	jmp	.L2181
.L2185:
	call	__stack_chk_fail@PLT
.L2165:
.L2184:
	movq	48(%rsp), %rdi
	addq	$16, %r12
	movq	%rax, %rbx
	cmpq	%r12, %rdi
	je	.L2159
.L2182:
	call	_ZdlPv@PLT
.L2159:
	movq	%rbx, %rdi
.LEHB230:
	call	_Unwind_Resume@PLT
.LEHE230:
.L2164:
	movq	80(%rsp), %rdi
	addq	$16, %rbp
	movq	%rax, %rbx
	cmpq	%rbp, %rdi
	jne	.L2182
	jmp	.L2159
.L2163:
	jmp	.L2184
	.cfi_endproc
.LFE3576:
	.section	.gcc_except_table
.LLSDA3576:
	.byte	0xff
	.byte	0xff
	.byte	0x1
	.uleb128 .LLSDACSE3576-.LLSDACSB3576
.LLSDACSB3576:
	.uleb128 .LEHB225-.LFB3576
	.uleb128 .LEHE225-.LEHB225
	.uleb128 0
	.uleb128 0
	.uleb128 .LEHB226-.LFB3576
	.uleb128 .LEHE226-.LEHB226
	.uleb128 .L2163-.LFB3576
	.uleb128 0
	.uleb128 .LEHB227-.LFB3576
	.uleb128 .LEHE227-.LEHB227
	.uleb128 0
	.uleb128 0
	.uleb128 .LEHB228-.LFB3576
	.uleb128 .LEHE228-.LEHB228
	.uleb128 .L2164-.LFB3576
	.uleb128 0
	.uleb128 .LEHB229-.LFB3576
	.uleb128 .LEHE229-.LEHB229
	.uleb128 .L2165-.LFB3576
	.uleb128 0
	.uleb128 .LEHB230-.LFB3576
	.uleb128 .LEHE230-.LEHB230
	.uleb128 0
	.uleb128 0
.LLSDACSE3576:
	.text
	.size	_ZN8frontend11SymbolTable15add_scope_entryENS_3STEEb, .-_ZN8frontend11SymbolTable15add_scope_entryENS_3STEEb
	.align 2
	.p2align 4,,15
	.globl	_ZN8frontend11SymbolTable15add_scope_entryEN2ir7OperandESt6vectorIiSaIiEEb
	.type	_ZN8frontend11SymbolTable15add_scope_entryEN2ir7OperandESt6vectorIiSaIiEEb, @function
_ZN8frontend11SymbolTable15add_scope_entryEN2ir7OperandESt6vectorIiSaIiEEb:
.LFB3581:
	.cfi_startproc
	.cfi_personality 0x9b,DW.ref.__gxx_personality_v0
	.cfi_lsda 0x1b,.LLSDA3581
	pushq	%r15
	.cfi_def_cfa_offset 16
	.cfi_offset 15, -16
	pushq	%r14
	.cfi_def_cfa_offset 24
	.cfi_offset 14, -24
	movq	%rsi, %r15
	pushq	%r13
	.cfi_def_cfa_offset 32
	.cfi_offset 13, -32
	pushq	%r12
	.cfi_def_cfa_offset 40
	.cfi_offset 12, -40
	movq	%rdx, %r12
	pushq	%rbp
	.cfi_def_cfa_offset 48
	.cfi_offset 6, -48
	pushq	%rbx
	.cfi_def_cfa_offset 56
	.cfi_offset 3, -56
	movl	$6, %edx
	subq	$184, %rsp
	.cfi_def_cfa_offset 240
	leaq	96(%rsp), %rbx
	leaq	32(%rsp), %rbp
	movq	%rdi, 8(%rsp)
	movq	%fs:40, %rax
	movq	%rax, 168(%rsp)
	xorl	%eax, %eax
	leaq	16(%rbx), %rax
	movq	%rbx, %rsi
	movq	%rbp, %rdi
	movl	%ecx, 20(%rsp)
	movl	$1819047278, 112(%rsp)
	movq	%rax, 96(%rsp)
	movq	$4, 104(%rsp)
	movb	$0, 116(%rsp)
.LEHB231:
	call	_ZN2ir7OperandC1ENSt7__cxx1112basic_stringIcSt11char_traitsIcESaIcEEENS_4TypeE@PLT
.LEHE231:
	movq	96(%rsp), %rdi
	leaq	16(%rbx), %rax
	cmpq	%rax, %rdi
	je	.L2187
	call	_ZdlPv@PLT
.L2187:
	movq	8(%r12), %r14
	movq	(%r12), %r13
	movq	$0, 72(%rsp)
	movq	$0, 80(%rsp)
	movq	$0, 88(%rsp)
	movq	%r14, %r12
	subq	%r13, %r12
	movq	%r12, %rax
	sarq	$2, %rax
	testq	%rax, %rax
	jne	.L2228
	cmpq	%r13, %r14
	jne	.L2229
.L2195:
	movq	%r15, %rdx
	movq	%rbp, %rsi
	movq	%rbx, %rdi
	movq	%r12, 80(%rsp)
.LEHB232:
	call	_ZN2ir7OperandaSERKS0_@PLT
	movq	96(%rsp), %rdi
	leaq	16(%rbx), %rax
	cmpq	%rax, %rdi
	je	.L2197
	call	_ZdlPv@PLT
.L2197:
	movq	%rbp, %rsi
	movq	%rbx, %rdi
	movzbl	20(%rsp), %r12d
	call	_ZN2ir7OperandC1ERKS0_@PLT
.LEHE232:
	movq	80(%rsp), %rax
	movq	72(%rsp), %rsi
	xorl	%ecx, %ecx
	movq	$0, 136(%rsp)
	movq	$0, 144(%rsp)
	movq	$0, 152(%rsp)
	movq	%rax, %r13
	subq	%rsi, %r13
	movq	%r13, %rdx
	movq	%r13, %r14
	sarq	$2, %rdx
	testq	%rdx, %rdx
	je	.L2199
	movabsq	$4611686018427387903, %rax
	cmpq	%rax, %rdx
	ja	.L2230
	movq	%r13, %rdi
.LEHB233:
	call	_Znwm@PLT
.LEHE233:
	movq	%rax, %rcx
	movq	80(%rsp), %rax
	movq	72(%rsp), %rsi
	movq	%rax, %r14
	subq	%rsi, %r14
.L2199:
	addq	%rcx, %r13
	cmpq	%rsi, %rax
	movq	%rcx, 136(%rsp)
	movq	%rcx, 144(%rsp)
	movq	%r13, 152(%rsp)
	je	.L2201
	movq	%rcx, %rdi
	movq	%r14, %rdx
	call	memmove@PLT
	movq	%rax, %rcx
.L2201:
	movq	8(%rsp), %rdi
	addq	%r14, %rcx
	movl	%r12d, %edx
	movq	%rbx, %rsi
	movq	%rcx, 144(%rsp)
.LEHB234:
	call	_ZN8frontend11SymbolTable15add_scope_entryENS_3STEEb
.LEHE234:
	movq	136(%rsp), %rdi
	testq	%rdi, %rdi
	je	.L2206
	call	_ZdlPv@PLT
.L2206:
	movq	96(%rsp), %rdi
	addq	$16, %rbx
	cmpq	%rbx, %rdi
	je	.L2207
	call	_ZdlPv@PLT
.L2207:
	movq	72(%rsp), %rdi
	testq	%rdi, %rdi
	je	.L2208
	call	_ZdlPv@PLT
.L2208:
	movq	32(%rsp), %rdi
	addq	$16, %rbp
	cmpq	%rbp, %rdi
	je	.L2186
	call	_ZdlPv@PLT
.L2186:
	movq	168(%rsp), %rax
	xorq	%fs:40, %rax
	jne	.L2231
	addq	$184, %rsp
	.cfi_remember_state
	.cfi_def_cfa_offset 56
	popq	%rbx
	.cfi_def_cfa_offset 48
	popq	%rbp
	.cfi_def_cfa_offset 40
	popq	%r12
	.cfi_def_cfa_offset 32
	popq	%r13
	.cfi_def_cfa_offset 24
	popq	%r14
	.cfi_def_cfa_offset 16
	popq	%r15
	.cfi_def_cfa_offset 8
	ret
	.p2align 4,,10
	.p2align 3
.L2228:
	.cfi_restore_state
	movabsq	$4611686018427387903, %rdx
	cmpq	%rdx, %rax
	ja	.L2232
	movq	%r12, %rdi
.LEHB235:
	call	_Znwm@PLT
.LEHE235:
	cmpq	%r13, %r14
	movq	%rax, %rcx
	je	.L2193
	movq	%r12, %rdx
	movq	%r13, %rsi
	movq	%rax, %rdi
	call	memcpy@PLT
	movq	%rax, %rcx
.L2193:
	movq	72(%rsp), %rdi
	testq	%rdi, %rdi
	je	.L2194
	movq	%rcx, 24(%rsp)
	call	_ZdlPv@PLT
	movq	24(%rsp), %rcx
.L2194:
	addq	%rcx, %r12
	movq	%rcx, 72(%rsp)
	movq	%r12, 88(%rsp)
	jmp	.L2195
	.p2align 4,,10
	.p2align 3
.L2229:
	movq	%r12, %rdx
	movq	%r13, %rsi
	xorl	%edi, %edi
	call	memmove@PLT
	addq	72(%rsp), %r12
	jmp	.L2195
.L2230:
.LEHB236:
	call	_ZSt17__throw_bad_allocv@PLT
.LEHE236:
.L2215:
	movq	96(%rsp), %rdi
	addq	$16, %rbx
	movq	%rax, %r12
	cmpq	%rbx, %rdi
	je	.L2205
	call	_ZdlPv@PLT
.L2205:
	movq	%rbp, %rdi
	call	_ZN8frontend3STED1Ev
	movq	%r12, %rdi
.LEHB237:
	call	_Unwind_Resume@PLT
.LEHE237:
.L2231:
	call	__stack_chk_fail@PLT
.L2232:
.LEHB238:
	call	_ZSt17__throw_bad_allocv@PLT
.LEHE238:
.L2212:
	movq	%rax, %r12
	jmp	.L2205
.L2214:
	movq	96(%rsp), %rdi
	addq	$16, %rbx
	movq	%rax, %rbp
	cmpq	%rbx, %rdi
	je	.L2191
	call	_ZdlPv@PLT
.L2191:
	movq	%rbp, %rdi
.LEHB239:
	call	_Unwind_Resume@PLT
.LEHE239:
.L2213:
	movq	%rbx, %rdi
	movq	%rax, %r12
	call	_ZN8frontend3STED1Ev
	jmp	.L2205
	.cfi_endproc
.LFE3581:
	.section	.gcc_except_table
.LLSDA3581:
	.byte	0xff
	.byte	0xff
	.byte	0x1
	.uleb128 .LLSDACSE3581-.LLSDACSB3581
.LLSDACSB3581:
	.uleb128 .LEHB231-.LFB3581
	.uleb128 .LEHE231-.LEHB231
	.uleb128 .L2214-.LFB3581
	.uleb128 0
	.uleb128 .LEHB232-.LFB3581
	.uleb128 .LEHE232-.LEHB232
	.uleb128 .L2212-.LFB3581
	.uleb128 0
	.uleb128 .LEHB233-.LFB3581
	.uleb128 .LEHE233-.LEHB233
	.uleb128 .L2215-.LFB3581
	.uleb128 0
	.uleb128 .LEHB234-.LFB3581
	.uleb128 .LEHE234-.LEHB234
	.uleb128 .L2213-.LFB3581
	.uleb128 0
	.uleb128 .LEHB235-.LFB3581
	.uleb128 .LEHE235-.LEHB235
	.uleb128 .L2212-.LFB3581
	.uleb128 0
	.uleb128 .LEHB236-.LFB3581
	.uleb128 .LEHE236-.LEHB236
	.uleb128 .L2215-.LFB3581
	.uleb128 0
	.uleb128 .LEHB237-.LFB3581
	.uleb128 .LEHE237-.LEHB237
	.uleb128 0
	.uleb128 0
	.uleb128 .LEHB238-.LFB3581
	.uleb128 .LEHE238-.LEHB238
	.uleb128 .L2212-.LFB3581
	.uleb128 0
	.uleb128 .LEHB239-.LFB3581
	.uleb128 .LEHE239-.LEHB239
	.uleb128 0
	.uleb128 0
.LLSDACSE3581:
	.text
	.size	_ZN8frontend11SymbolTable15add_scope_entryEN2ir7OperandESt6vectorIiSaIiEEb, .-_ZN8frontend11SymbolTable15add_scope_entryEN2ir7OperandESt6vectorIiSaIiEEb
	.align 2
	.p2align 4,,15
	.globl	_ZN8frontend11SymbolTable15add_scope_entryEN2ir4TypeENSt7__cxx1112basic_stringIcSt11char_traitsIcESaIcEEESt6vectorIiSaIiEEb
	.type	_ZN8frontend11SymbolTable15add_scope_entryEN2ir4TypeENSt7__cxx1112basic_stringIcSt11char_traitsIcESaIcEEESt6vectorIiSaIiEEb, @function
_ZN8frontend11SymbolTable15add_scope_entryEN2ir4TypeENSt7__cxx1112basic_stringIcSt11char_traitsIcESaIcEEESt6vectorIiSaIiEEb:
.LFB3591:
	.cfi_startproc
	.cfi_personality 0x9b,DW.ref.__gxx_personality_v0
	.cfi_lsda 0x1b,.LLSDA3591
	pushq	%r15
	.cfi_def_cfa_offset 16
	.cfi_offset 15, -16
	pushq	%r14
	.cfi_def_cfa_offset 24
	.cfi_offset 14, -24
	movl	%esi, %r9d
	pushq	%r13
	.cfi_def_cfa_offset 32
	.cfi_offset 13, -32
	pushq	%r12
	.cfi_def_cfa_offset 40
	.cfi_offset 12, -40
	movq	%rdi, %r14
	pushq	%rbp
	.cfi_def_cfa_offset 48
	.cfi_offset 6, -48
	pushq	%rbx
	.cfi_def_cfa_offset 56
	.cfi_offset 3, -56
	movq	%rcx, %r13
	movl	%r8d, %r15d
	subq	$152, %rsp
	.cfi_def_cfa_offset 208
	movq	(%rdx), %r12
	movq	8(%rdx), %rbp
	leaq	96(%rsp), %rbx
	movq	%fs:40, %rax
	movq	%rax, 136(%rsp)
	xorl	%eax, %eax
	leaq	16(%rbx), %rax
	movq	%rax, 96(%rsp)
	movq	%r12, %rax
	addq	%rbp, %rax
	je	.L2234
	testq	%r12, %r12
	je	.L2274
.L2234:
	cmpq	$15, %rbp
	movq	%rbp, 16(%rsp)
	ja	.L2275
	cmpq	$1, %rbp
	jne	.L2237
	movzbl	(%r12), %eax
	movb	%al, 112(%rsp)
	leaq	16(%rbx), %rax
.L2238:
	movq	%rbp, 104(%rsp)
	movb	$0, (%rax,%rbp)
	leaq	48(%rsp), %rbp
	movl	%r9d, %edx
	movq	%rbx, %rsi
	movq	%rbp, %rdi
.LEHB240:
	call	_ZN2ir7OperandC1ENSt7__cxx1112basic_stringIcSt11char_traitsIcESaIcEEENS_4TypeE@PLT
.LEHE240:
	movq	96(%rsp), %rdi
	leaq	16(%rbx), %rax
	cmpq	%rax, %rdi
	je	.L2239
	call	_ZdlPv@PLT
.L2239:
	movq	8(%r13), %rax
	movq	0(%r13), %rsi
	movzbl	%r15b, %r15d
	pxor	%xmm0, %xmm0
	movq	$0, 32(%rsp)
	movq	%rax, %r12
	subq	%rsi, %r12
	movq	%r12, %rdx
	sarq	$2, %rdx
	testq	%rdx, %rdx
	movaps	%xmm0, 16(%rsp)
	je	.L2276
	movabsq	$4611686018427387903, %rax
	cmpq	%rax, %rdx
	ja	.L2277
	movq	%r12, %rdi
.LEHB241:
	call	_Znwm@PLT
.LEHE241:
	movq	%rax, %rcx
	movq	8(%r13), %rax
	movq	0(%r13), %rsi
	movq	%rax, %r13
	subq	%rsi, %r13
.L2241:
	movq	%rcx, 8(%rsp)
	addq	%rcx, %r12
	cmpq	%rsi, %rax
	movq	8(%rsp), %xmm0
	movq	%r12, 32(%rsp)
	punpcklqdq	%xmm0, %xmm0
	movaps	%xmm0, 16(%rsp)
	je	.L2243
	movq	%rcx, %rdi
	movq	%r13, %rdx
	call	memcpy@PLT
	movq	%rax, %rcx
.L2243:
	addq	%r13, %rcx
	movq	%rbp, %rsi
	movq	%rbx, %rdi
	movq	%rcx, 24(%rsp)
.LEHB242:
	call	_ZN2ir7OperandC1ERKS0_@PLT
.LEHE242:
	leaq	16(%rsp), %rdx
	movl	%r15d, %ecx
	movq	%rbx, %rsi
	movq	%r14, %rdi
.LEHB243:
	call	_ZN8frontend11SymbolTable15add_scope_entryEN2ir7OperandESt6vectorIiSaIiEEb
.LEHE243:
	movq	96(%rsp), %rdi
	addq	$16, %rbx
	cmpq	%rbx, %rdi
	je	.L2244
	call	_ZdlPv@PLT
.L2244:
	movq	16(%rsp), %rdi
	testq	%rdi, %rdi
	je	.L2245
	call	_ZdlPv@PLT
.L2245:
	movq	48(%rsp), %rdi
	addq	$16, %rbp
	cmpq	%rbp, %rdi
	je	.L2233
	call	_ZdlPv@PLT
.L2233:
	movq	136(%rsp), %rax
	xorq	%fs:40, %rax
	jne	.L2278
	addq	$152, %rsp
	.cfi_remember_state
	.cfi_def_cfa_offset 56
	popq	%rbx
	.cfi_def_cfa_offset 48
	popq	%rbp
	.cfi_def_cfa_offset 40
	popq	%r12
	.cfi_def_cfa_offset 32
	popq	%r13
	.cfi_def_cfa_offset 24
	popq	%r14
	.cfi_def_cfa_offset 16
	popq	%r15
	.cfi_def_cfa_offset 8
	ret
	.p2align 4,,10
	.p2align 3
.L2275:
	.cfi_restore_state
	leaq	16(%rsp), %rsi
	xorl	%edx, %edx
	movq	%rbx, %rdi
	movl	%r9d, 8(%rsp)
.LEHB244:
	call	_ZNSt7__cxx1112basic_stringIcSt11char_traitsIcESaIcEE9_M_createERmm@PLT
	movq	16(%rsp), %rdx
	movl	8(%rsp), %r9d
	movq	%rax, 96(%rsp)
	movq	%rdx, 112(%rsp)
.L2236:
	movq	%rbp, %rdx
	movq	%r12, %rsi
	movq	%rax, %rdi
	movl	%r9d, 8(%rsp)
	call	memcpy@PLT
	movq	16(%rsp), %rbp
	movq	96(%rsp), %rax
	movl	8(%rsp), %r9d
	jmp	.L2238
	.p2align 4,,10
	.p2align 3
.L2237:
	testq	%rbp, %rbp
	leaq	16(%rbx), %rax
	je	.L2238
	jmp	.L2236
	.p2align 4,,10
	.p2align 3
.L2276:
	movq	%r12, %r13
	xorl	%ecx, %ecx
	jmp	.L2241
.L2274:
	leaq	.LC4(%rip), %rdi
	call	_ZSt19__throw_logic_errorPKc@PLT
.LEHE244:
.L2278:
	call	__stack_chk_fail@PLT
.L2277:
.LEHB245:
	call	_ZSt17__throw_bad_allocv@PLT
.LEHE245:
.L2258:
	movq	%rax, %rbx
.L2253:
	movq	48(%rsp), %rdi
	addq	$16, %rbp
	cmpq	%rbp, %rdi
	je	.L2254
	call	_ZdlPv@PLT
.L2254:
	movq	%rbx, %rdi
.LEHB246:
	call	_Unwind_Resume@PLT
.L2259:
	movq	%rax, %rbx
.L2251:
	movq	16(%rsp), %rdi
	testq	%rdi, %rdi
	je	.L2253
	call	_ZdlPv@PLT
	jmp	.L2253
.L2260:
	movq	96(%rsp), %rdi
	addq	$16, %rbx
	movq	%rax, %r12
	cmpq	%rbx, %rdi
	je	.L2250
	call	_ZdlPv@PLT
.L2250:
	movq	%r12, %rbx
	jmp	.L2251
.L2257:
	movq	96(%rsp), %rdi
	addq	$16, %rbx
	movq	%rax, %rbp
	cmpq	%rbx, %rdi
	je	.L2248
	call	_ZdlPv@PLT
.L2248:
	movq	%rbp, %rdi
	call	_Unwind_Resume@PLT
.LEHE246:
	.cfi_endproc
.LFE3591:
	.section	.gcc_except_table
.LLSDA3591:
	.byte	0xff
	.byte	0xff
	.byte	0x1
	.uleb128 .LLSDACSE3591-.LLSDACSB3591
.LLSDACSB3591:
	.uleb128 .LEHB240-.LFB3591
	.uleb128 .LEHE240-.LEHB240
	.uleb128 .L2257-.LFB3591
	.uleb128 0
	.uleb128 .LEHB241-.LFB3591
	.uleb128 .LEHE241-.LEHB241
	.uleb128 .L2258-.LFB3591
	.uleb128 0
	.uleb128 .LEHB242-.LFB3591
	.uleb128 .LEHE242-.LEHB242
	.uleb128 .L2259-.LFB3591
	.uleb128 0
	.uleb128 .LEHB243-.LFB3591
